Archive member included to satisfy reference by file (symbol)

..\..\libs\cpu\libplatform.a(sdadc.o)
                              Output\obj\driver\driver_sdadc.o (mic_adc_init)
..\..\libs\cpu\libplatform.a(cm.o)
                              Output\obj\project\ble_all_roles\bsp\bsp_param.o (cm_sync)
..\..\libs\cpu\libplatform.a(os_flash.o)
                              ..\..\libs\cpu\libplatform.a(cm.o) (os_spiflash_read)
..\..\libs\cpu\libplatform.a(xcfg.o)
                              Output\obj\project\ble_all_roles\bsp\bsp_sys.o (xcfg_init)
..\..\libs\cpu\libplatform.a(main.o)
                              Output\obj\driver\driver_touch_key.o (delay_5ms)
..\..\libs\cpu\libplatform.a(interrupt.o)
                              Output\obj\driver\driver_gpio.o (sys_irq_init)
..\..\libs\cpu\libplatform.a(startup.o)
                              Output\obj\project\ble_all_roles\strong_symbol.o (thread_btstack_create)
..\..\libs\cpu\libplatform.a(sys_hook.o)
                              ..\..\libs\cpu\libplatform.a(startup.o) (sys_hook_init)
..\..\libs\cpu\libplatform.a(thread_aupcm.o)
                              ..\..\libs\cpu\libplatform.a(sdadc.o) (os_mq_aupcm_post)
..\..\libs\cpu\libplatform.a(thread_driver.o)
                              ..\..\libs\cpu\libplatform.a(startup.o) (thread_driver_entry)
..\..\libs\cpu\libplatform.a(pll.o)
                              ..\..\libs\cpu\libplatform.a(main.o) (pll0_disable)
..\..\libs\cpu\libplatform.a(pmu.o)
                              Output\obj\driver\driver_lowpwr.o (pmu_get_vddcore)
..\..\libs\cpu\libplatform.a(rc.o)
                              ..\..\libs\cpu\libplatform.a(main.o) (rc_compile)
..\..\libs\cpu\libplatform.a(reset.o)
                              (_start)
..\..\libs\cpu\libplatform.a(spiflash.o)
                              ..\..\libs\cpu\libplatform.a(os_flash.o) (spi_delay)
..\..\libs\cpu\libplatform.a(debug.o)
                              ..\..\libs\cpu\libplatform.a(main.o) (debug_set)
..\..\libs\cpu\libplatform.a(fot_pack.o)
                              ..\..\libs\cpu\libplatform.a(os_flash.o) (ota_pack_is_update_success)
..\..\libs\cpu\libplatform.a(key.o)
                              Output\obj\project\ble_all_roles\bsp\bsp_key.o (multiple_key_init)
..\..\libs\cpu\libplatform.a(lock.o)
                              ..\..\libs\cpu\libplatform.a(main.o) (lock_init)
..\..\libs\cpu\libplatform.a(patch.o)
                              ..\..\libs\cpu\libplatform.a(main.o) (patch_init)
..\..\libs\cpu\libplatform.a(s_sys.o)
                              ..\..\libs\cpu\libplatform.a(startup.o) (dummy_func)
..\..\libs\cpu\libplatform.a(sleep.o)
                              Output\obj\driver\driver_lowpwr.o (lowpwr_sleep_sfr_save)
..\..\libs\cpu\libplatform.a(sys.o)
                              Output\obj\project\ble_all_roles\main.o (sys_rst_init)
..\..\libs\cpu\libplatform.a(sys_clk.o)
                              Output\obj\driver\driver_spi.o (sys_clk_nhz_get)
..\..\libs\cpu\libplatform.a(voltage_trim.o)
                              Output\obj\driver\driver_charge.o (charge_const_curr_trim)
..\..\libs\cpu\libplatform.a(weak_symbol.o)
                              ..\..\libs\cpu\libplatform.a(main.o) (xosc_24m_div_get)
..\..\libs\cpu\libplatform.a(sddac.o)
                              ..\..\libs\cpu\libplatform.a(thread_aupcm.o) (sddac_dma_done_do)
..\..\libs\cpu\libplatform.a(bt.o)
                              ..\..\libs\cpu\libplatform.a(startup.o) (thread_btstack_entry)
..\..\libs\cpu\libplatform.a(crc.o)
                              ..\..\libs\cpu\libplatform.a(fot_pack.o) (calc_crc32)
..\..\libs\cpu\libgcc.a(divdf3.o)
                              Output\obj\driver\driver_irrx.o (__divdf3)
..\..\libs\cpu\libgcc.a(muldf3.o)
                              Output\obj\driver\driver_irrx.o (__muldf3)
..\..\libs\cpu\libgcc.a(fixunsdfsi.o)
                              Output\obj\driver\driver_irrx.o (__fixunsdfsi)
..\..\libs\cpu\libgcc.a(floatsidf.o)
                              Output\obj\driver\driver_irtx.o (__floatsidf)
..\..\libs\cpu\libgcc.a(floatunsidf.o)
                              Output\obj\driver\driver_irrx.o (__floatunsidf)
..\..\libs\cpu\libgcc.a(_clzsi2.o)
                              ..\..\libs\cpu\libgcc.a(divdf3.o) (__clzsi2)
..\..\libs\cpu\libgcc.a(_clz.o)
                              ..\..\libs\cpu\libgcc.a(_clzsi2.o) (__clz_tab)
..\..\libs\ble\libbtstack_all_roles.a(txpkt.o)
                              Output\obj\project\ble_all_roles\ble\ble_init.o (txpkt_init)
..\..\libs\ble\libbtstack_all_roles.a(sm.o)
                              Output\obj\project\ble_all_roles\ble\ble_init.o (ble_sm_init)
..\..\libs\ble\libbtstack_all_roles.a(le_device_db_memory.o)
                              ..\..\libs\ble\libbtstack_all_roles.a(sm.o) (ble_bonding_info_max_count)
..\..\libs\ble\libbtstack_all_roles.a(gatt_server.o)
                              Output\obj\project\ble_all_roles\ble\ble_user_service.o (ble_notify_for_handle)
..\..\libs\ble\libbtstack_all_roles.a(gatt_client.o)
                              Output\obj\project\ble_all_roles\ble\ble_client.o (att_client_register_handler)
..\..\libs\ble\libbtstack_all_roles.a(att_server.o)
                              Output\obj\project\ble_all_roles\ble\ble_user_service.o (att_server_register_service_handler)
..\..\libs\ble\libbtstack_all_roles.a(att_dispatch.o)
                              ..\..\libs\ble\libbtstack_all_roles.a(gatt_client.o) (att_dispatch_register_client)
..\..\libs\ble\libbtstack_all_roles.a(att_db.o)
                              ..\..\libs\ble\libbtstack_all_roles.a(att_server.o) (att_set_db)
..\..\libs\ble\libbtstack_all_roles.a(btstack_api.o)
                              Output\obj\project\ble_all_roles\ble\ble_init.o (bt_init)
..\..\libs\ble\libbtstack_all_roles.a(bt_api.o)
                              Output\obj\project\ble_all_roles\app\func_bt.o (bt_off)
..\..\libs\ble\libbtstack_all_roles.a(ble_api.o)
                              Output\obj\project\ble_all_roles\ble\ble_app.o (ble_adv_dis)
..\..\libs\ble\libbtstack_all_roles.a(rf.o)
                              ..\..\libs\ble\libbtstack_all_roles.a(btstack_api.o) (rf_single_tone_enter)
..\..\libs\ble\libbtstack_all_roles.a(ble_con.o)
                              ..\..\libs\ble\libbtstack_all_roles.a(btstack_api.o) (ble_get_con_rssi)
..\..\libs\ble\libbtstack_all_roles.a(bb_utils.o)
                              ..\..\libs\ble\libbtstack_all_roles.a(ble_con.o) (bb_sca2ppm)
..\..\libs\ble\libbtstack_all_roles.a(bb_int.o)
                              ..\..\libs\ble\libbtstack_all_roles.a(bt_api.o) (bb_timer_init)
..\..\libs\ble\libbtstack_all_roles.a(bb.o)
                              ..\..\libs\ble\libbtstack_all_roles.a(btstack_api.o) (bb_var_init)
..\..\libs\ble\libbtstack_all_roles.a(platform.o)
                              ..\..\libs\ble\libbtstack_all_roles.a(bb.o) (dummy_void)
..\..\libs\ble\libbtstack_all_roles.a(extern_ble.o)
                              ..\..\libs\ble\libbtstack_all_roles.a(att_server.o) (att_user_read_callback)
..\..\libs\ble\libbtstack_all_roles.a(extern.o)
                              ..\..\libs\ble\libbtstack_all_roles.a(bb_int.o) (sys_sleep_check)
..\..\libs\ble\libbtstack_all_roles.a(l2cap.o)
                              ..\..\libs\ble\libbtstack_all_roles.a(btstack_api.o) (gap_request_connection_parameter_update)
..\..\libs\ble\libbtstack_all_roles.a(hci_dump.o)
                              ..\..\libs\ble\libbtstack_all_roles.a(btstack_api.o) (hci_dump_open)
..\..\libs\ble\libbtstack_all_roles.a(hci_cmd.o)
                              ..\..\libs\ble\libbtstack_all_roles.a(sm.o) (hci_le_long_term_key_negative_reply)
..\..\libs\ble\libbtstack_all_roles.a(hci.o)
                              ..\..\libs\ble\libbtstack_all_roles.a(sm.o) (hci_get_state)
..\..\libs\ble\libbtstack_all_roles.a(btstack_util.o)
                              ..\..\libs\ble\libbtstack_all_roles.a(hci.o) (bd_addr_copy)
..\..\libs\ble\libbtstack_all_roles.a(btstack_run_loop.o)
                              ..\..\libs\ble\libbtstack_all_roles.a(sm.o) (btstack_run_loop_set_timer_handler)
..\..\libs\ble\libbtstack_all_roles.a(btstack_memory.o)
                              ..\..\libs\ble\libbtstack_all_roles.a(gatt_client.o) (btstack_memory_gatt_client_get)
..\..\libs\ble\libbtstack_all_roles.a(btstack_linked_list.o)
                              ..\..\libs\ble\libbtstack_all_roles.a(gatt_client.o) (btstack_linked_list_add)
..\..\libs\ble\libbtstack_all_roles.a(ad_parser.o)
                              ..\..\libs\ble\libbtstack_all_roles.a(btstack_api.o) (ad_param)
..\..\libs\ble\libbtstack_all_roles.a(hci_transport_hcic.o)
                              ..\..\libs\ble\libbtstack_all_roles.a(hci.o) (hcic_rx_flush)
..\..\libs\ble\libbtstack_all_roles.a(hci_transport_h3_controller.o)
                              ..\..\libs\ble\libbtstack_all_roles.a(btstack_run_loop.o) (hci_is_sleep)
..\..\libs\ble\libbtstack_all_roles.a(hci_transport_dummy.o)
                              ..\..\libs\ble\libbtstack_all_roles.a(btstack_api.o) (hci_iodm_init)
..\..\libs\ble\libbtstack_all_roles.a(btstack_main.o)
                              ..\..\libs\ble\libbtstack_all_roles.a(ble_api.o) (btstack_ble_set_init_callback)
..\..\libs\ble\libbtstack_all_roles.a(btstack_hal.o)
                              ..\..\libs\ble\libbtstack_all_roles.a(btstack_run_loop.o) (hal_tick_init)
..\..\libs\ble\libbtstack_all_roles.a(nanos.o)
                              ..\..\libs\ble\libbtstack_all_roles.a(bb_int.o) (nanos_event_set)
..\..\libs\ble\libbtstack_all_roles.a(bb_sche.o)
                              ..\..\libs\ble\libbtstack_all_roles.a(bb.o) (bb_sche_init)
..\..\libs\ble\libbtstack_all_roles.a(patch.o)
                              ..\..\libs\ble\libbtstack_all_roles.a(bb.o) (bb_patch_dummy)
..\..\libs\ble\libbtstack_all_roles.a(bb_dbg.o)
                              ..\..\libs\ble\libbtstack_all_roles.a(bb.o) (bb_dbg_init)
..\..\libs\ble\libbtstack_all_roles.a(bb_clk.o)
                              ..\..\libs\ble\libbtstack_all_roles.a(bb.o) (bb_clk_init)
..\..\libs\ble\libbtstack_all_roles.a(aes.o)
                              ..\..\libs\ble\libbtstack_all_roles.a(bb.o) (aes_init)
..\..\libs\ble\libbtstack_all_roles.a(extern.o)
                              ..\..\libs\ble\libbtstack_all_roles.a(bb_int.o) (ble_sleep_duration_max_get)
..\..\libs\ble\libbtstack_all_roles.a(vs.o)
                              ..\..\libs\ble\libbtstack_all_roles.a(bb.o) (vs_init)
..\..\libs\ble\libbtstack_all_roles.a(rf_xbox.o)
                              ..\..\libs\ble\libbtstack_all_roles.a(rf.o) (rfphy_deep_sleep)
..\..\libs\ble\libbtstack_all_roles.a(complex.o)
                              ..\..\libs\ble\libbtstack_all_roles.a(rf_xbox.o) (complexSubtract)
..\..\libs\ble\libbtstack_all_roles.a(ble_hook.o)
                              ..\..\libs\ble\libbtstack_all_roles.a(bb.o) (ble_isr_hook)
..\..\libs\ble\libbtstack_all_roles.a(hct_tl.o)
                              ..\..\libs\ble\libbtstack_all_roles.a(hci_transport_hcic.o) (hci_tx_done)
..\..\libs\ble\libbtstack_all_roles.a(hct_msg.o)
                              ..\..\libs\ble\libbtstack_all_roles.a(hct_tl.o) (hci_look_for_cmd_desc)
..\..\libs\ble\libbtstack_all_roles.a(hct.o)
                              ..\..\libs\ble\libbtstack_all_roles.a(bb.o) (hct_init)
..\..\libs\ble\libbtstack_all_roles.a(mgr_hci.o)
                              ..\..\libs\ble\libbtstack_all_roles.a(hci.o) (hci_le_rd_buff_size)
..\..\libs\ble\libbtstack_all_roles.a(mgr.o)
                              ..\..\libs\ble\libbtstack_all_roles.a(mgr_hci.o) (mgr_cmd_cmp_send)
..\..\libs\ble\libbtstack_all_roles.a(ll_scan.o)
                              ..\..\libs\ble\libbtstack_all_roles.a(mgr_hci.o) (hci_le_set_scan_param_cmd_func)
..\..\libs\ble\libbtstack_all_roles.a(ll_adv.o)
                              ..\..\libs\ble\libbtstack_all_roles.a(mgr_hci.o) (hci_le_set_adv_param_cmd_func)
..\..\libs\ble\libbtstack_all_roles.a(ll_tbox_freq_cal.o)
                              ..\..\libs\ble\libbtstack_all_roles.a(patch.o) (ll_tbox_freq_cal_patch)
..\..\libs\ble\libbtstack_all_roles.a(ll_con_upd.o)
                              ..\..\libs\ble\libbtstack_all_roles.a(ll_adv.o) (ll_con_move_cb)
..\..\libs\ble\libbtstack_all_roles.a(ll_cntl.o)
                              ..\..\libs\ble\libbtstack_all_roles.a(ll_tbox_freq_cal.o) (ll_cntl_send)
..\..\libs\ble\libbtstack_all_roles.a(ll_clk_acc.o)
                              ..\..\libs\ble\libbtstack_all_roles.a(ll_cntl.o) (ll_clk_acc_req_func)
..\..\libs\ble\libbtstack_all_roles.a(ll_chmap_upd.o)
                              ..\..\libs\ble\libbtstack_all_roles.a(ll_cntl.o) (ll_channel_map_ind_func)
..\..\libs\ble\libbtstack_all_roles.a(ll.o)
                              ..\..\libs\ble\libbtstack_all_roles.a(ll_adv.o) (ll_start)
..\..\libs\ble\libbtstack_all_roles.a(ble_scan.o)
                              ..\..\libs\ble\libbtstack_all_roles.a(ll_scan.o) (ble_scan_private_init_hook)
..\..\libs\ble\libbtstack_all_roles.a(ble_hal.o)
                              ..\..\libs\ble\libbtstack_all_roles.a(ble_con.o) (ble_channel_assess)
..\..\libs\ble\libbtstack_all_roles.a(ble_adv.o)
                              ..\..\libs\ble\libbtstack_all_roles.a(ll_adv.o) (ble_adv_start)
..\..\libs\ble\libbtstack_all_roles.a(ble_buf.o)
                              ..\..\libs\ble\libbtstack_all_roles.a(hct_tl.o) (ble_buf_rx_free)
..\..\libs\ble\libbtstack_all_roles.a(ble.o)
                              ..\..\libs\ble\libbtstack_all_roles.a(bb.o) (ble_var_init)
..\..\libs\ble\libbtstack_all_roles.a(bb_sleep.o)
                              ..\..\libs\ble\libbtstack_all_roles.a(bb_int.o) (bb_sleep_suspend)
..\..\libs\ble\libbtstack_all_roles.a(periph.o)
                              ..\..\libs\ble\libbtstack_all_roles.a(btstack_hal.o) (bt_uart_init)
..\..\libs\ble\libbtstack_all_roles.a(l2cap_signaling.o)
                              ..\..\libs\ble\libbtstack_all_roles.a(l2cap.o) (l2cap_create_signaling_le)
..\..\libs\ble\libbtstack_all_roles.a(btstack_memory_pool.o)
                              ..\..\libs\ble\libbtstack_all_roles.a(btstack_memory.o) (btstack_memory_pool_get)
..\..\libs\ble\libbtstack_all_roles.a(patch_asm.o)
                              ..\..\libs\ble\libbtstack_all_roles.a(patch.o) (bb_v1_patch0)
..\..\libs\ble\libbtstack_all_roles.a(platform.o)
                              ..\..\libs\ble\libbtstack_all_roles.a(ll_cntl.o) (bb_ll_tx_cb)
..\..\libs\ble\libbtstack_all_roles.a(vs_proc.o)
                              ..\..\libs\ble\libbtstack_all_roles.a(vs.o) (vs_env)
..\..\libs\ble\libbtstack_all_roles.a(vs_fcc.o)
                              ..\..\libs\ble\libbtstack_all_roles.a(vs_proc.o) (vs_fcc_test_cmd)
..\..\libs\ble\libbtstack_all_roles.a(scan_hook.o)
                              ..\..\libs\ble\libbtstack_all_roles.a(ll_scan.o) (ble_scan_end_ind_hook)
..\..\libs\ble\libbtstack_all_roles.a(adv_hook.o)
                              ..\..\libs\ble\libbtstack_all_roles.a(ll_adv.o) (ble_adv_end_ind_hook)
..\..\libs\ble\libbtstack_all_roles.a(mgr_test.o)
                              ..\..\libs\ble\libbtstack_all_roles.a(mgr_hci.o) (hci_le_rx_test_v1_cmd_func)
..\..\libs\ble\libbtstack_all_roles.a(mgr_proc.o)
                              ..\..\libs\ble\libbtstack_all_roles.a(mgr.o) (mgr_msg_env)
..\..\libs\ble\libbtstack_all_roles.a(mgr_init.o)
                              ..\..\libs\ble\libbtstack_all_roles.a(mgr_hci.o) (hci_le_create_con_cmd_func)
..\..\libs\ble\libbtstack_all_roles.a(ll_version.o)
                              ..\..\libs\ble\libbtstack_all_roles.a(ll_cntl.o) (ll_version_ind_func)
..\..\libs\ble\libbtstack_all_roles.a(ll_tbox_prod_test.o)
                              ..\..\libs\ble\libbtstack_all_roles.a(ll_cntl.o) (ll_tbox_prod_test_req_func)
..\..\libs\ble\libbtstack_all_roles.a(ll_tbox_feature.o)
                              ..\..\libs\ble\libbtstack_all_roles.a(ll_cntl.o) (ll_tbox_feat_req_func)
..\..\libs\ble\libbtstack_all_roles.a(ll_proc.o)
                              ..\..\libs\ble\libbtstack_all_roles.a(ll_con_upd.o) (ll_cmd_stat_send)
..\..\libs\ble\libbtstack_all_roles.a(ll_ping.o)
                              ..\..\libs\ble\libbtstack_all_roles.a(ll_cntl.o) (ll_ping_req_func)
..\..\libs\ble\libbtstack_all_roles.a(ll_phy_upd.o)
                              ..\..\libs\ble\libbtstack_all_roles.a(ll_cntl.o) (ll_phy_req_func)
..\..\libs\ble\libbtstack_all_roles.a(ll_length.o)
                              ..\..\libs\ble\libbtstack_all_roles.a(ll_cntl.o) (ll_length_req_func)
..\..\libs\ble\libbtstack_all_roles.a(ll_feature.o)
                              ..\..\libs\ble\libbtstack_all_roles.a(ll_cntl.o) (ll_feature_req_func)
..\..\libs\ble\libbtstack_all_roles.a(ll_encrypt.o)
                              ..\..\libs\ble\libbtstack_all_roles.a(ll_cntl.o) (ll_pause_enc_req_func)
..\..\libs\ble\libbtstack_all_roles.a(ll_disconnect.o)
                              ..\..\libs\ble\libbtstack_all_roles.a(ll_proc.o) (ble_disc_ind_func)
..\..\libs\ble\libbtstack_all_roles.a(ble_test.o)
                              ..\..\libs\ble\libbtstack_all_roles.a(vs_fcc.o) (ble_test_start)
..\..\libs\ble\libbtstack_all_roles.a(ble_sync.o)
                              ..\..\libs\ble\libbtstack_all_roles.a(ble.o) (ble_get_sync_var)
..\..\libs\ble\libbtstack_all_roles.a(ble_init.o)
                              ..\..\libs\ble\libbtstack_all_roles.a(mgr_init.o) (ble_init_start)

Allocating common symbols
Common symbol       size              file

tmr5ms_cnt          0x2               Output\obj\project\ble_all_roles\bsp\bsp_sys.o
g_variance          0x10              Output\obj\driver\driver_touch_key.o
ble_user_cb         0x64              Output\obj\project\ble_all_roles\ble\ble_user_service.o
app_env             0x3               Output\obj\project\ble_all_roles\ble\ble_app.o
cfg_bt_rf_def_txpwr
                    0x1               Output\obj\project\ble_all_roles\strong_symbol.o
sfr_user_backup     0x20              Output\obj\project\ble_all_roles\app\func_lowpwr.o
xcfg_cb             0x34              Output\obj\project\ble_all_roles\bsp\bsp_sys.o
g_avg               0x10              Output\obj\driver\driver_touch_key.o

Discarded input sections

 .text          0x0000000000000000        0x0 Output\obj\driver\driver_adv_timer.o
 .data          0x0000000000000000        0x0 Output\obj\driver\driver_adv_timer.o
 .bss           0x0000000000000000        0x0 Output\obj\driver\driver_adv_timer.o
 .text.tim_timebaseinit
                0x0000000000000000       0x50 Output\obj\driver\driver_adv_timer.o
 .text.tim_oc1init
                0x0000000000000000       0x78 Output\obj\driver\driver_adv_timer.o
 .text.tim_oc2init
                0x0000000000000000       0x9c Output\obj\driver\driver_adv_timer.o
 .text.tim_oc3init
                0x0000000000000000       0x96 Output\obj\driver\driver_adv_timer.o
 .text.tim_oc4init
                0x0000000000000000       0x74 Output\obj\driver\driver_adv_timer.o
 .text.tim_bdtrconfig
                0x0000000000000000       0x30 Output\obj\driver\driver_adv_timer.o
 .text.tim_timebasestructinit
                0x0000000000000000       0x18 Output\obj\driver\driver_adv_timer.o
 .text.tim_ocstructinit
                0x0000000000000000       0x22 Output\obj\driver\driver_adv_timer.o
 .text.tim_bdtrstructinit
                0x0000000000000000       0x1e Output\obj\driver\driver_adv_timer.o
 .com_text.tim.cmd
                0x0000000000000000       0x14 Output\obj\driver\driver_adv_timer.o
 .com_text.tim.ctrlpwmoutputs
                0x0000000000000000       0x12 Output\obj\driver\driver_adv_timer.o
 .text.tim_itconfig
                0x0000000000000000       0x16 Output\obj\driver\driver_adv_timer.o
 .com_periph.tim.generateevent
                0x0000000000000000        0x4 Output\obj\driver\driver_adv_timer.o
 .com_periph.tim.internalclock
                0x0000000000000000        0xc Output\obj\driver\driver_adv_timer.o
 .com_periph.tim.itrxexternalclock
                0x0000000000000000       0x18 Output\obj\driver\driver_adv_timer.o
 .com_periph.tim.tixexternalclock
                0x0000000000000000       0xb0 Output\obj\driver\driver_adv_timer.o
 .com_periph.tim.etrconfig
                0x0000000000000000       0x16 Output\obj\driver\driver_adv_timer.o
 .com_periph.etrclockmode1
                0x0000000000000000       0x2a Output\obj\driver\driver_adv_timer.o
 .com_periph.tim.etrclockmode2
                0x0000000000000000       0x22 Output\obj\driver\driver_adv_timer.o
 .com_periph.tim.prescaler
                0x0000000000000000        0x6 Output\obj\driver\driver_adv_timer.o
 .com_periph.tim.countermode
                0x0000000000000000       0x10 Output\obj\driver\driver_adv_timer.o
 .com_periph.tim.selectinputtrigger
                0x0000000000000000       0x10 Output\obj\driver\driver_adv_timer.o
 .text.tim_encoderinterfaceconfig
                0x0000000000000000       0x3a Output\obj\driver\driver_adv_timer.o
 .com_periph.tim.forcedoc1
                0x0000000000000000       0x10 Output\obj\driver\driver_adv_timer.o
 .com_periph.tim.forcedoc2
                0x0000000000000000       0x18 Output\obj\driver\driver_adv_timer.o
 .com_periph.tim.forcedoc3
                0x0000000000000000       0x10 Output\obj\driver\driver_adv_timer.o
 .com_periph.tim.forcedoc4
                0x0000000000000000       0x18 Output\obj\driver\driver_adv_timer.o
 .com_periph.tim.arrpreload
                0x0000000000000000       0x16 Output\obj\driver\driver_adv_timer.o
 .com_periph.tim.selectcom
                0x0000000000000000       0x14 Output\obj\driver\driver_adv_timer.o
 .com_periph.tim.ccpreloadcontrol
                0x0000000000000000       0x14 Output\obj\driver\driver_adv_timer.o
 .com_periph.tim.oc1preload
                0x0000000000000000        0xe Output\obj\driver\driver_adv_timer.o
 .com_periph.tim.oc2preload
                0x0000000000000000       0x1a Output\obj\driver\driver_adv_timer.o
 .com_periph.tim.oc3preload
                0x0000000000000000        0xe Output\obj\driver\driver_adv_timer.o
 .com_periph.tim.oc4preload
                0x0000000000000000       0x1a Output\obj\driver\driver_adv_timer.o
 .com_periph.tim.clearoc1
                0x0000000000000000       0x10 Output\obj\driver\driver_adv_timer.o
 .com_periph.tim.clearoc2
                0x0000000000000000       0x12 Output\obj\driver\driver_adv_timer.o
 .com_periph.tim.clearoc3
                0x0000000000000000       0x10 Output\obj\driver\driver_adv_timer.o
 .com_periph.tim.clearoc4
                0x0000000000000000       0x12 Output\obj\driver\driver_adv_timer.o
 .com_periph.tim.oc1polarity
                0x0000000000000000        0xe Output\obj\driver\driver_adv_timer.o
 .com_periph.oc1npolarity
                0x0000000000000000        0xe Output\obj\driver\driver_adv_timer.o
 .com_periph.oc2polarity
                0x0000000000000000       0x16 Output\obj\driver\driver_adv_timer.o
 .com_periph.oc2npolarity
                0x0000000000000000       0x16 Output\obj\driver\driver_adv_timer.o
 .com_periph.oc3polarity
                0x0000000000000000       0x16 Output\obj\driver\driver_adv_timer.o
 .com_periph.oc3npolarity
                0x0000000000000000       0x1a Output\obj\driver\driver_adv_timer.o
 .com_periph.oc4polarity
                0x0000000000000000       0x18 Output\obj\driver\driver_adv_timer.o
 .com_periph.ccxcmd
                0x0000000000000000       0x24 Output\obj\driver\driver_adv_timer.o
 .com_periph.ccxncmd
                0x0000000000000000       0x24 Output\obj\driver\driver_adv_timer.o
 .com_periph.selectocxm
                0x0000000000000000       0x58 Output\obj\driver\driver_adv_timer.o
 .com_periph.tim.updatedisable
                0x0000000000000000       0x14 Output\obj\driver\driver_adv_timer.o
 .com_periph.tim.updaterequest
                0x0000000000000000       0x14 Output\obj\driver\driver_adv_timer.o
 .com_periph.selectonepulsemode
                0x0000000000000000       0x12 Output\obj\driver\driver_adv_timer.o
 .com_periph.tim.selectoutputtrigger
                0x0000000000000000       0x14 Output\obj\driver\driver_adv_timer.o
 .com_periph.tim.selectslavemode
                0x0000000000000000       0x12 Output\obj\driver\driver_adv_timer.o
 .com_periph.tim.setcounter
                0x0000000000000000        0x4 Output\obj\driver\driver_adv_timer.o
 .com_periph.tim.setautoreload
                0x0000000000000000        0x4 Output\obj\driver\driver_adv_timer.o
 .com_periph.setcompare1
                0x0000000000000000        0x4 Output\obj\driver\driver_adv_timer.o
 .com_periph.setcompare2
                0x0000000000000000        0x4 Output\obj\driver\driver_adv_timer.o
 .com_periph.setcompare3
                0x0000000000000000        0x4 Output\obj\driver\driver_adv_timer.o
 .com_periph.setcompare4
                0x0000000000000000        0x4 Output\obj\driver\driver_adv_timer.o
 .com_periph.setic1prescaler
                0x0000000000000000       0x12 Output\obj\driver\driver_adv_timer.o
 .com_periph.setic2prescaler
                0x0000000000000000       0x1a Output\obj\driver\driver_adv_timer.o
 .com_periph.setic3prescaler
                0x0000000000000000       0x12 Output\obj\driver\driver_adv_timer.o
 .com_periph.setic4prescaler
                0x0000000000000000       0x1a Output\obj\driver\driver_adv_timer.o
 .com_periph.tim.setclockdivision
                0x0000000000000000       0x14 Output\obj\driver\driver_adv_timer.o
 .com_periph.tim.getcounter
                0x0000000000000000        0x8 Output\obj\driver\driver_adv_timer.o
 .com_periph.tim.getprescaler
                0x0000000000000000        0x8 Output\obj\driver\driver_adv_timer.o
 .com_periph.getflagstatus
                0x0000000000000000        0xa Output\obj\driver\driver_adv_timer.o
 .com_periph.clearflag
                0x0000000000000000        0x4 Output\obj\driver\driver_adv_timer.o
 .com_periph.getitstatus
                0x0000000000000000       0x14 Output\obj\driver\driver_adv_timer.o
 .com_periph.clearitpendingbit
                0x0000000000000000        0x4 Output\obj\driver\driver_adv_timer.o
 .com_periph.tim.trgosaradc
                0x0000000000000000       0x12 Output\obj\driver\driver_adv_timer.o
 .comment       0x0000000000000000       0x12 Output\obj\driver\driver_adv_timer.o
 .text          0x0000000000000000        0x0 Output\obj\driver\driver_charge.o
 .data          0x0000000000000000        0x0 Output\obj\driver\driver_charge.o
 .bss           0x0000000000000000        0x0 Output\obj\driver\driver_charge.o
 .text.charge_deinit
                0x0000000000000000       0x24 Output\obj\driver\driver_charge.o
 .text.charge_change_mode
                0x0000000000000000       0x10 Output\obj\driver\driver_charge.o
 .text.charge_get_mode
                0x0000000000000000        0xa Output\obj\driver\driver_charge.o
 .text.charge_cutoff_cur_condition
                0x0000000000000000        0xa Output\obj\driver\driver_charge.o
 .text.charge_cutoff_vol_condition
                0x0000000000000000        0xa Output\obj\driver\driver_charge.o
 .text.charge_trickle_vol_condition
                0x0000000000000000        0xa Output\obj\driver\driver_charge.o
 .text.charge_cutoff_vol_to_stop_time_set
                0x0000000000000000        0xa Output\obj\driver\driver_charge.o
 .text.charge_pwrup_charge_cur_sel
                0x0000000000000000       0x12 Output\obj\driver\driver_charge.o
 .text.charge_cutoff_vol_triming
                0x0000000000000000       0x2e Output\obj\driver\driver_charge.o
 .text          0x0000000000000000        0x0 Output\obj\driver\driver_clk.o
 .data          0x0000000000000000        0x0 Output\obj\driver\driver_clk.o
 .bss           0x0000000000000000        0x0 Output\obj\driver\driver_clk.o
 .text.clk_gate1_cmd
                0x0000000000000000       0x16 Output\obj\driver\driver_clk.o
 .text.clk_gate2_cmd
                0x0000000000000000       0x16 Output\obj\driver\driver_clk.o
 .text.clk_clkout_set
                0x0000000000000000       0x4e Output\obj\driver\driver_clk.o
 .text.clk_clk32k_rtc_set
                0x0000000000000000       0x28 Output\obj\driver\driver_clk.o
 .text.clk_clk32k_rtc_get
                0x0000000000000000       0x46 Output\obj\driver\driver_clk.o
 .text.clk_hsut0_clk_set
                0x0000000000000000       0x4a Output\obj\driver\driver_clk.o
 .text.clk_saradc_clk_set
                0x0000000000000000       0x18 Output\obj\driver\driver_clk.o
 .text.clk_udet_clk_set
                0x0000000000000000       0x18 Output\obj\driver\driver_clk.o
 .text.clk_hsut0_clk_get
                0x0000000000000000       0x6c Output\obj\driver\driver_clk.o
 .text.clk_tmr_inc_set
                0x0000000000000000       0x18 Output\obj\driver\driver_clk.o
 .text.clk_tmr_inc_get
                0x0000000000000000       0x60 Output\obj\driver\driver_clk.o
 .text.clk_uart_inc_set
                0x0000000000000000       0x16 Output\obj\driver\driver_clk.o
 .text.clk_clk2m_ks_set
                0x0000000000000000       0x18 Output\obj\driver\driver_clk.o
 .text.clk_clk2m_ks_get
                0x0000000000000000       0x3a Output\obj\driver\driver_clk.o
 .text.clk_sdadda_clk_set
                0x0000000000000000       0x40 Output\obj\driver\driver_clk.o
 .text.clk_sdadda_clk_get
                0x0000000000000000       0x54 Output\obj\driver\driver_clk.o
 .text.clk_ledc_clk_set
                0x0000000000000000       0x18 Output\obj\driver\driver_clk.o
 .text.clk_ledc_clk_get
                0x0000000000000000       0x24 Output\obj\driver\driver_clk.o
 .text.clk_touch_key_clk_set
                0x0000000000000000       0x54 Output\obj\driver\driver_clk.o
 .text.clk_touch_key_clk_get
                0x0000000000000000       0x34 Output\obj\driver\driver_clk.o
 .text.clk_ttmr_inc_set
                0x0000000000000000       0x16 Output\obj\driver\driver_clk.o
 .text.clk_ttmr_inc_get
                0x0000000000000000       0x60 Output\obj\driver\driver_clk.o
 .text.clk_qdec_set
                0x0000000000000000       0x16 Output\obj\driver\driver_clk.o
 .text          0x0000000000000000        0x0 Output\obj\driver\driver_gpio.o
 .data          0x0000000000000000        0x0 Output\obj\driver\driver_gpio.o
 .bss           0x0000000000000000        0x0 Output\obj\driver\driver_gpio.o
 .text.gpio_deinit
                0x0000000000000000       0x1c Output\obj\driver\driver_gpio.o
 .com_periph.gpio.set
                0x0000000000000000        0x4 Output\obj\driver\driver_gpio.o
 .com_periph.gpio.reset
                0x0000000000000000        0x4 Output\obj\driver\driver_gpio.o
 .com_periph.gpio.write
                0x0000000000000000        0x4 Output\obj\driver\driver_gpio.o
 .com_periph.gpio.read_data
                0x0000000000000000        0x8 Output\obj\driver\driver_gpio.o
 .com_periph.gpio.read_bit
                0x0000000000000000        0xa Output\obj\driver\driver_gpio.o
 .text.gpio_func_mapping_clear
                0x0000000000000000       0x84 Output\obj\driver\driver_gpio.o
 .com_periph.gpio.pending_clr
                0x0000000000000000        0xc Output\obj\driver\driver_gpio.o
 .com_periph.gpio.pending_is
                0x0000000000000000       0x12 Output\obj\driver\driver_gpio.o
 .text.gpio_edge_pic_disable
                0x0000000000000000       0x1c Output\obj\driver\driver_gpio.o
 .text.gpio_reset_init
                0x0000000000000000       0x84 Output\obj\driver\driver_gpio.o
 .text.gpio_reset_10s_sel
                0x0000000000000000       0x3a Output\obj\driver\driver_gpio.o
 .text          0x0000000000000000        0x0 Output\obj\driver\driver_hsuart.o
 .data          0x0000000000000000        0x0 Output\obj\driver\driver_hsuart.o
 .bss           0x0000000000000000        0x0 Output\obj\driver\driver_hsuart.o
 .text.hsuart_init
                0x0000000000000000       0x92 Output\obj\driver\driver_hsuart.o
 .text.hsuart_deinit
                0x0000000000000000       0x14 Output\obj\driver\driver_hsuart.o
 .text.hsuart_cmd
                0x0000000000000000       0x16 Output\obj\driver\driver_hsuart.o
 .com_periph.hsuart.send
                0x0000000000000000       0x1a Output\obj\driver\driver_hsuart.o
 .com_periph.hsuart.recv
                0x0000000000000000        0xa Output\obj\driver\driver_hsuart.o
 .com_periph.hsuart.receive_data
                0x0000000000000000       0x44 Output\obj\driver\driver_hsuart.o
 .com_periph.hsuart.fifo_get
                0x0000000000000000        0xa Output\obj\driver\driver_hsuart.o
 .text.hsuart_clear_fifo_counter
                0x0000000000000000        0xe Output\obj\driver\driver_hsuart.o
 .text.hsuart_baud_config
                0x0000000000000000       0x2c Output\obj\driver\driver_hsuart.o
 .text.hsuart_pic_config
                0x0000000000000000       0x6c Output\obj\driver\driver_hsuart.o
 .com_periph.hsuart.get_flag
                0x0000000000000000       0x32 Output\obj\driver\driver_hsuart.o
 .com_periph.hsuart.clear
                0x0000000000000000       0x32 Output\obj\driver\driver_hsuart.o
 .text.hsuart_rx_idle_config
                0x0000000000000000       0x1e Output\obj\driver\driver_hsuart.o
 .com_periph.hsuart.dma
                0x0000000000000000       0x20 Output\obj\driver\driver_hsuart.o
 .com_periph.hsuart.stop
                0x0000000000000000       0x18 Output\obj\driver\driver_hsuart.o
 .comment       0x0000000000000000       0x12 Output\obj\driver\driver_hsuart.o
 .text          0x0000000000000000        0x0 Output\obj\driver\driver_iic.o
 .data          0x0000000000000000        0x0 Output\obj\driver\driver_iic.o
 .bss           0x0000000000000000        0x0 Output\obj\driver\driver_iic.o
 .text.iic_transmit_config
                0x0000000000000000       0xc6 Output\obj\driver\driver_iic.o
 .text.iic_init
                0x0000000000000000       0x80 Output\obj\driver\driver_iic.o
 .text.iic_deinit
                0x0000000000000000       0x10 Output\obj\driver\driver_iic.o
 .text.iic_cmd  0x0000000000000000       0x14 Output\obj\driver\driver_iic.o
 .text.iic_send_data
                0x0000000000000000       0x6a Output\obj\driver\driver_iic.o
 .com_periph.iic.dma
                0x0000000000000000      0x10e Output\obj\driver\driver_iic.o
 .text.iic_receive_data
                0x0000000000000000       0x6c Output\obj\driver\driver_iic.o
 .text.iic_pic_config
                0x0000000000000000       0x3e Output\obj\driver\driver_iic.o
 .com_periph.iic.get
                0x0000000000000000       0x20 Output\obj\driver\driver_iic.o
 .com_periph.iic.clear
                0x0000000000000000        0xe Output\obj\driver\driver_iic.o
 .com_periph.iic.nack_en
                0x0000000000000000       0x16 Output\obj\driver\driver_iic.o
 .com_periph.iic.smp_sel
                0x0000000000000000       0x16 Output\obj\driver\driver_iic.o
 .text.iic_slave_addr_set
                0x0000000000000000        0x6 Output\obj\driver\driver_iic.o
 .com_periph.iic.slave_status_get
                0x0000000000000000        0x6 Output\obj\driver\driver_iic.o
 .com_periph.iic.slave_data_len_get
                0x0000000000000000        0xa Output\obj\driver\driver_iic.o
 .com_periph.iic.slave_data_get
                0x0000000000000000        0x6 Output\obj\driver\driver_iic.o
 .com_periph.iic.slave_data_send
                0x0000000000000000       0x10 Output\obj\driver\driver_iic.o
 .com_periph.iic.clear_done_flag
                0x0000000000000000        0xe Output\obj\driver\driver_iic.o
 .com_periph.iic.clear_slave_tx_status
                0x0000000000000000        0xe Output\obj\driver\driver_iic.o
 .com_periph.iic.clear_slave_rx_status
                0x0000000000000000       0x10 Output\obj\driver\driver_iic.o
 .com_periph.iic.slave_is_rx_status
                0x0000000000000000        0x6 Output\obj\driver\driver_iic.o
 .com_periph.iic.slave_is_tx_status
                0x0000000000000000        0x6 Output\obj\driver\driver_iic.o
 .com_periph.iic.slave_rx_stop_sign
                0x0000000000000000        0xa Output\obj\driver\driver_iic.o
 .comment       0x0000000000000000       0x12 Output\obj\driver\driver_iic.o
 .text          0x0000000000000000        0x0 Output\obj\driver\driver_irrx.o
 .data          0x0000000000000000        0x0 Output\obj\driver\driver_irrx.o
 .bss           0x0000000000000000        0x0 Output\obj\driver\driver_irrx.o
 .text.irrx_init
                0x0000000000000000       0x8a Output\obj\driver\driver_irrx.o
 .text.irrx_decode_config
                0x0000000000000000      0x1a0 Output\obj\driver\driver_irrx.o
 .text.irrx_base_init
                0x0000000000000000       0x28 Output\obj\driver\driver_irrx.o
 .text.irrx_wake_init
                0x0000000000000000       0x38 Output\obj\driver\driver_irrx.o
 .text.irrx_decode_init
                0x0000000000000000        0x8 Output\obj\driver\driver_irrx.o
 .rodata.irrx_decode_config.cst8
                0x0000000000000000       0x48 Output\obj\driver\driver_irrx.o
 .rodata.timing_freq
                0x0000000000000000       0x10 Output\obj\driver\driver_irrx.o
 .comment       0x0000000000000000       0x12 Output\obj\driver\driver_irrx.o
 .text          0x0000000000000000        0x0 Output\obj\driver\driver_irtx.o
 .data          0x0000000000000000        0x0 Output\obj\driver\driver_irtx.o
 .bss           0x0000000000000000        0x0 Output\obj\driver\driver_irtx.o
 .text.ir_clk_init
                0x0000000000000000       0xce Output\obj\driver\driver_irtx.o
 .text.irtx_clk_init
                0x0000000000000000       0x30 Output\obj\driver\driver_irtx.o
 .text.irtx_timing_set
                0x0000000000000000      0x212 Output\obj\driver\driver_irtx.o
 .text.irtx_timing_init
                0x0000000000000000       0x7e Output\obj\driver\driver_irtx.o
 .text.irtx_capture_edge
                0x0000000000000000       0x18 Output\obj\driver\driver_irtx.o
 .text.irtx_carrier_init
                0x0000000000000000       0x66 Output\obj\driver\driver_irtx.o
 .text.irtx_dma_init
                0x0000000000000000       0x40 Output\obj\driver\driver_irtx.o
 .text.irtx_data_set
                0x0000000000000000        0x4 Output\obj\driver\driver_irtx.o
 .text.irtx_init
                0x0000000000000000       0x3c Output\obj\driver\driver_irtx.o
 .text.irtx_set_repeat
                0x0000000000000000       0x20 Output\obj\driver\driver_irtx.o
 .text.irfilter_set
                0x0000000000000000       0x34 Output\obj\driver\driver_irtx.o
 .text.irtx_kick_wait
                0x0000000000000000       0x26 Output\obj\driver\driver_irtx.o
 .text.irtx_capture_dma_init
                0x0000000000000000       0x22 Output\obj\driver\driver_irtx.o
 .text.irtx_capture_dma_kick
                0x0000000000000000       0x10 Output\obj\driver\driver_irtx.o
 .text.irtx_learn_dma_init
                0x0000000000000000        0x8 Output\obj\driver\driver_irtx.o
 .text.irtx_learn_kick
                0x0000000000000000       0x10 Output\obj\driver\driver_irtx.o
 .text.irtx_base_init
                0x0000000000000000       0x6e Output\obj\driver\driver_irtx.o
 .text.irtx_repeat_send
                0x0000000000000000       0x1c Output\obj\driver\driver_irtx.o
 .text.irtx_send
                0x0000000000000000        0x8 Output\obj\driver\driver_irtx.o
 .text.irtx_capture_init
                0x0000000000000000       0x32 Output\obj\driver\driver_irtx.o
 .text.irtx_capture_buf_init
                0x0000000000000000       0x24 Output\obj\driver\driver_irtx.o
 .text.irtx_learn_init
                0x0000000000000000       0x52 Output\obj\driver\driver_irtx.o
 .text.irtx_learn_buf_init
                0x0000000000000000        0xe Output\obj\driver\driver_irtx.o
 .text.irtx_pic_config
                0x0000000000000000       0x4a Output\obj\driver\driver_irtx.o
 .rodata.Nec    0x0000000000000000       0x24 Output\obj\driver\driver_irtx.o
 .rodata.Rc5    0x0000000000000000       0x24 Output\obj\driver\driver_irtx.o
 .rodata.Rc6    0x0000000000000000       0x24 Output\obj\driver\driver_irtx.o
 .rodata.Tc9012
                0x0000000000000000       0x24 Output\obj\driver\driver_irtx.o
 .rodata.irtx_timing_set.cst8
                0x0000000000000000        0x8 Output\obj\driver\driver_irtx.o
 .rodata.timing_freq
                0x0000000000000000       0x10 Output\obj\driver\driver_irtx.o
 .comment       0x0000000000000000       0x12 Output\obj\driver\driver_irtx.o
 .text          0x0000000000000000        0x0 Output\obj\driver\driver_keyscan.o
 .data          0x0000000000000000        0x0 Output\obj\driver\driver_keyscan.o
 .bss           0x0000000000000000        0x0 Output\obj\driver\driver_keyscan.o
 .text.keyscan_init
                0x0000000000000000       0xc8 Output\obj\driver\driver_keyscan.o
 .text.keyscan_deinit
                0x0000000000000000        0xc Output\obj\driver\driver_keyscan.o
 .com_periph.keyscan.en_ctrl
                0x0000000000000000       0x16 Output\obj\driver\driver_keyscan.o
 .text.keyscan_pic_config
                0x0000000000000000       0x3a Output\obj\driver\driver_keyscan.o
 .com_periph.keyscan.flag
                0x0000000000000000       0x44 Output\obj\driver\driver_keyscan.o
 .com_periph.keyscan.query
                0x0000000000000000       0xca Output\obj\driver\driver_keyscan.o
 .com_periph.keyscan.lowpwr_mode
                0x0000000000000000        0xc Output\obj\driver\driver_keyscan.o
 .comment       0x0000000000000000       0x12 Output\obj\driver\driver_keyscan.o
 .text          0x0000000000000000        0x0 Output\obj\driver\driver_ledc.o
 .data          0x0000000000000000        0x0 Output\obj\driver\driver_ledc.o
 .bss           0x0000000000000000        0x0 Output\obj\driver\driver_ledc.o
 .text.ledc_init
                0x0000000000000000       0x3e Output\obj\driver\driver_ledc.o
 .text.ledc_timing_init
                0x0000000000000000       0x5c Output\obj\driver\driver_ledc.o
 .text.ledc_deinit
                0x0000000000000000       0x20 Output\obj\driver\driver_ledc.o
 .com_text.ledc.cmd
                0x0000000000000000       0x16 Output\obj\driver\driver_ledc.o
 .com_periph.ledc.transport
                0x0000000000000000       0x20 Output\obj\driver\driver_ledc.o
 .text.ledc_pic_config
                0x0000000000000000       0x44 Output\obj\driver\driver_ledc.o
 .com_periph.ledc.flag
                0x0000000000000000       0x42 Output\obj\driver\driver_ledc.o
 .text.ledc_set_frame_length
                0x0000000000000000        0xe Output\obj\driver\driver_ledc.o
 .text.ledc_set_loop_number
                0x0000000000000000        0xc Output\obj\driver\driver_ledc.o
 .text.ledc_get_frame_length
                0x0000000000000000       0x10 Output\obj\driver\driver_ledc.o
 .text.ledc_get_loop_number
                0x0000000000000000        0xc Output\obj\driver\driver_ledc.o
 .comment       0x0000000000000000       0x12 Output\obj\driver\driver_ledc.o
 .text          0x0000000000000000        0x0 Output\obj\driver\driver_lowpwr.o
 .data          0x0000000000000000        0x0 Output\obj\driver\driver_lowpwr.o
 .bss           0x0000000000000000        0x0 Output\obj\driver\driver_lowpwr.o
 .com_text.pwroff.mode2
                0x0000000000000000      0x13e Output\obj\driver\driver_lowpwr.o
 .com_sleep.lv2_get_wksrc
                0x0000000000000000        0xa Output\obj\driver\driver_lowpwr.o
 .com_sleep.lv2_clr_wksrc
                0x0000000000000000        0xa Output\obj\driver\driver_lowpwr.o
 .text.lowpwr_wakeup_config
                0x0000000000000000       0x1a Output\obj\driver\driver_lowpwr.o
 .com_text.lp_port_init
                0x0000000000000000       0x44 Output\obj\driver\driver_lowpwr.o
 .com_text.pwroff_mode2
                0x0000000000000000       0x92 Output\obj\driver\driver_lowpwr.o
 .com_sleep.lv2
                0x0000000000000000        0x4 Output\obj\driver\driver_lowpwr.o
 .text          0x0000000000000000        0x0 Output\obj\driver\driver_lpwm.o
 .data          0x0000000000000000        0x0 Output\obj\driver\driver_lpwm.o
 .bss           0x0000000000000000        0x0 Output\obj\driver\driver_lpwm.o
 .text.lpwm_init
                0x0000000000000000       0xae Output\obj\driver\driver_lpwm.o
 .text.lpwm_deinit
                0x0000000000000000       0x3a Output\obj\driver\driver_lpwm.o
 .text.lpwm_stage_config
                0x0000000000000000      0x11e Output\obj\driver\driver_lpwm.o
 .text.lpwm_cmd
                0x0000000000000000       0x16 Output\obj\driver\driver_lpwm.o
 .text.lpwm_get_flag
                0x0000000000000000        0xe Output\obj\driver\driver_lpwm.o
 .text.lpwm_clear_flag
                0x0000000000000000       0x10 Output\obj\driver\driver_lpwm.o
 .comment       0x0000000000000000       0x12 Output\obj\driver\driver_lpwm.o
 .text          0x0000000000000000        0x0 Output\obj\driver\driver_qdec.o
 .data          0x0000000000000000        0x0 Output\obj\driver\driver_qdec.o
 .bss           0x0000000000000000        0x0 Output\obj\driver\driver_qdec.o
 .text.qdec_init
                0x0000000000000000       0xd0 Output\obj\driver\driver_qdec.o
 .text.qdec_deinit
                0x0000000000000000       0x3a Output\obj\driver\driver_qdec.o
 .com_periph.qdec.cmd
                0x0000000000000000       0x10 Output\obj\driver\driver_qdec.o
 .com_periph.qdec.get_data
                0x0000000000000000        0x4 Output\obj\driver\driver_qdec.o
 .text.qdec_clear_data
                0x0000000000000000        0xa Output\obj\driver\driver_qdec.o
 .text.qdec_pic_config
                0x0000000000000000       0x52 Output\obj\driver\driver_qdec.o
 .com_periph.qdec.get
                0x0000000000000000       0x3e Output\obj\driver\driver_qdec.o
 .com_periph.qdec.clear
                0x0000000000000000       0x3c Output\obj\driver\driver_qdec.o
 .comment       0x0000000000000000       0x12 Output\obj\driver\driver_qdec.o
 .text          0x0000000000000000        0x0 Output\obj\driver\driver_rtc.o
 .data          0x0000000000000000        0x0 Output\obj\driver\driver_rtc.o
 .bss           0x0000000000000000        0x0 Output\obj\driver\driver_rtc.o
 .com_periph.rtc.cnt_set
                0x0000000000000000        0x8 Output\obj\driver\driver_rtc.o
 .com_periph.rtc.cnt_get
                0x0000000000000000        0x8 Output\obj\driver\driver_rtc.o
 .com_periph.rtc.alarm_set
                0x0000000000000000        0x8 Output\obj\driver\driver_rtc.o
 .com_periph.rtc.alarm_get
                0x0000000000000000        0x8 Output\obj\driver\driver_rtc.o
 .text.rtc_prescale_set
                0x0000000000000000       0x16 Output\obj\driver\driver_rtc.o
 .text.rtc_prescale_get
                0x0000000000000000        0xc Output\obj\driver\driver_rtc.o
 .text.rtc_pic_config
                0x0000000000000000       0x90 Output\obj\driver\driver_rtc.o
 .com_periph.rct.get
                0x0000000000000000       0x36 Output\obj\driver\driver_rtc.o
 .com_periph.rct.clear
                0x0000000000000000       0x1a Output\obj\driver\driver_rtc.o
 .comment       0x0000000000000000       0x12 Output\obj\driver\driver_rtc.o
 .text          0x0000000000000000        0x0 Output\obj\driver\driver_saradc.o
 .data          0x0000000000000000        0x0 Output\obj\driver\driver_saradc.o
 .bss           0x0000000000000000        0x0 Output\obj\driver\driver_saradc.o
 .text.saradc_set_baud
                0x0000000000000000       0x2e Output\obj\driver\driver_saradc.o
 .text.saradc_pic_config
                0x0000000000000000       0x34 Output\obj\driver\driver_saradc.o
 .com_periph.saradc.get
                0x0000000000000000       0x10 Output\obj\driver\driver_saradc.o
 .com_periph.saradc.clear
                0x0000000000000000       0x10 Output\obj\driver\driver_saradc.o
 .text          0x0000000000000000        0x0 Output\obj\driver\driver_sdadc.o
 .data          0x0000000000000000        0x0 Output\obj\driver\driver_sdadc.o
 .bss           0x0000000000000000        0x0 Output\obj\driver\driver_sdadc.o
 .text.sdadc_init
                0x0000000000000000       0xa2 Output\obj\driver\driver_sdadc.o
 .text.sdadc_deinit
                0x0000000000000000       0x40 Output\obj\driver\driver_sdadc.o
 .text.sdadc_cmd
                0x0000000000000000       0x16 Output\obj\driver\driver_sdadc.o
 .text.sdadc_dma_cmd
                0x0000000000000000       0x1c Output\obj\driver\driver_sdadc.o
 .text.sdadc_pic_config
                0x0000000000000000       0x52 Output\obj\driver\driver_sdadc.o
 .com_periph.sdadc.flag
                0x0000000000000000       0x4c Output\obj\driver\driver_sdadc.o
 .text.sdadc_digital_gain_set
                0x0000000000000000        0xc Output\obj\driver\driver_sdadc.o
 .text.sdadc_removeDC_bits_set
                0x0000000000000000       0x18 Output\obj\driver\driver_sdadc.o
 .text.sdadc_getDC_bits_set
                0x0000000000000000       0x16 Output\obj\driver\driver_sdadc.o
 .text.sdadc_digital_gain_get
                0x0000000000000000        0xc Output\obj\driver\driver_sdadc.o
 .text.sdadc_getDC_bits_get
                0x0000000000000000        0xe Output\obj\driver\driver_sdadc.o
 .text.sdadc_removeDC_bits_get
                0x0000000000000000        0xc Output\obj\driver\driver_sdadc.o
 .comment       0x0000000000000000       0x12 Output\obj\driver\driver_sdadc.o
 .text          0x0000000000000000        0x0 Output\obj\driver\driver_sddac.o
 .data          0x0000000000000000        0x0 Output\obj\driver\driver_sddac.o
 .bss           0x0000000000000000        0x0 Output\obj\driver\driver_sddac.o
 .com_periph.sddac.kick
                0x0000000000000000       0x24 Output\obj\driver\driver_sddac.o
 .com_periph.sddac.dma_stop
                0x0000000000000000        0xe Output\obj\driver\driver_sddac.o
 .com_periph.sddac.spr_get
                0x0000000000000000       0x1a Output\obj\driver\driver_sddac.o
 .com_periph.sddac.spr_set
                0x0000000000000000       0x6e Output\obj\driver\driver_sddac.o
 .text.sddac_init
                0x0000000000000000       0x64 Output\obj\driver\driver_sddac.o
 .text.sddac_deinit
                0x0000000000000000       0x20 Output\obj\driver\driver_sddac.o
 .text.sddac_pic_config
                0x0000000000000000       0x44 Output\obj\driver\driver_sddac.o
 .text.sddac_cmd
                0x0000000000000000       0x1c Output\obj\driver\driver_sddac.o
 .com_periph.sddac.get
                0x0000000000000000       0x28 Output\obj\driver\driver_sddac.o
 .com_periph.sddac.clear
                0x0000000000000000       0x1c Output\obj\driver\driver_sddac.o
 .comment       0x0000000000000000       0x12 Output\obj\driver\driver_sddac.o
 .text          0x0000000000000000        0x0 Output\obj\driver\driver_spi.o
 .data          0x0000000000000000        0x0 Output\obj\driver\driver_spi.o
 .bss           0x0000000000000000        0x0 Output\obj\driver\driver_spi.o
 .text.spi_init
                0x0000000000000000       0x50 Output\obj\driver\driver_spi.o
 .text.spi_deinit
                0x0000000000000000       0x1c Output\obj\driver\driver_spi.o
 .text.spi_cmd  0x0000000000000000       0x10 Output\obj\driver\driver_spi.o
 .com_periph.spi
                0x0000000000000000       0x4e Output\obj\driver\driver_spi.o
 .text.spi_lfsr_cmd
                0x0000000000000000       0x12 Output\obj\driver\driver_spi.o
 .text.spi_multi_bit_bus_cmd
                0x0000000000000000       0x12 Output\obj\driver\driver_spi.o
 .text.spi_hold_rx_cmd
                0x0000000000000000       0x12 Output\obj\driver\driver_spi.o
 .text.spi_hold_tx_cmd
                0x0000000000000000       0x12 Output\obj\driver\driver_spi.o
 .text.spi_soft_hold_cmd
                0x0000000000000000       0x12 Output\obj\driver\driver_spi.o
 .text.spi_pic_config
                0x0000000000000000       0x42 Output\obj\driver\driver_spi.o
 .comment       0x0000000000000000       0x12 Output\obj\driver\driver_spi.o
 .text          0x0000000000000000        0x0 Output\obj\driver\driver_tmr.o
 .data          0x0000000000000000        0x0 Output\obj\driver\driver_tmr.o
 .bss           0x0000000000000000        0x0 Output\obj\driver\driver_tmr.o
 .text.tmr_base_init
                0x0000000000000000       0x6c Output\obj\driver\driver_tmr.o
 .text.tmr_deinit
                0x0000000000000000       0x54 Output\obj\driver\driver_tmr.o
 .text.tmr_set_counter
                0x0000000000000000        0x4 Output\obj\driver\driver_tmr.o
 .com_periph.tmr.set_period
                0x0000000000000000        0x4 Output\obj\driver\driver_tmr.o
 .text.tmr_set_prescale
                0x0000000000000000        0xe Output\obj\driver\driver_tmr.o
 .text.tmr_get_counter
                0x0000000000000000        0x4 Output\obj\driver\driver_tmr.o
 .text.tmr_get_period
                0x0000000000000000        0x4 Output\obj\driver\driver_tmr.o
 .text.tmr_get_prescale
                0x0000000000000000       0x16 Output\obj\driver\driver_tmr.o
 .com_periph.tmr.cmd
                0x0000000000000000       0x34 Output\obj\driver\driver_tmr.o
 .text.tmr_pwm_duty_config
                0x0000000000000000       0x3e Output\obj\driver\driver_tmr.o
 .text.tmr_pwm_cmd
                0x0000000000000000       0x22 Output\obj\driver\driver_tmr.o
 .text.tmr_get_capture
                0x0000000000000000       0x24 Output\obj\driver\driver_tmr.o
 .text.tmr_capture_config
                0x0000000000000000       0x28 Output\obj\driver\driver_tmr.o
 .text.tmr_capture_cmd
                0x0000000000000000       0x1a Output\obj\driver\driver_tmr.o
 .text.tmr_pic_config
                0x0000000000000000       0x9e Output\obj\driver\driver_tmr.o
 .com_periph.tmr.get
                0x0000000000000000       0x52 Output\obj\driver\driver_tmr.o
 .com_periph.tmr.clear
                0x0000000000000000       0x42 Output\obj\driver\driver_tmr.o
 .comment       0x0000000000000000       0x12 Output\obj\driver\driver_tmr.o
 .text          0x0000000000000000        0x0 Output\obj\driver\driver_touch_key.o
 .data          0x0000000000000000        0x0 Output\obj\driver\driver_touch_key.o
 .bss           0x0000000000000000        0x0 Output\obj\driver\driver_touch_key.o
 .com_periph.tkey.isr
                0x0000000000000000      0x182 Output\obj\driver\driver_touch_key.o
 .text.touch_key_dump
                0x0000000000000000       0x24 Output\obj\driver\driver_touch_key.o
 .com_periph.touch.get_key
                0x0000000000000000       0x16 Output\obj\driver\driver_touch_key.o
 .text.touch_key_isr_init
                0x0000000000000000       0x38 Output\obj\driver\driver_touch_key.o
 .text.touch_key_sw_reset
                0x0000000000000000       0x22 Output\obj\driver\driver_touch_key.o
 .text.touch_key_clk_init
                0x0000000000000000       0x92 Output\obj\driver\driver_touch_key.o
 .text.touch_key_init
                0x0000000000000000      0x314 Output\obj\driver\driver_touch_key.o
 .comment       0x0000000000000000       0x12 Output\obj\driver\driver_touch_key.o
 COMMON         0x0000000000000000       0x20 Output\obj\driver\driver_touch_key.o
 .text          0x0000000000000000        0x0 Output\obj\driver\driver_uart.o
 .data          0x0000000000000000        0x0 Output\obj\driver\driver_uart.o
 .bss           0x0000000000000000        0x0 Output\obj\driver\driver_uart.o
 .text.uart_deinit
                0x0000000000000000       0x2e Output\obj\driver\driver_uart.o
 .com_periph.uart.send
                0x0000000000000000        0x8 Output\obj\driver\driver_uart.o
 .com_periph.uart.recv
                0x0000000000000000       0x14 Output\obj\driver\driver_uart.o
 .text.uart_pic_config
                0x0000000000000000       0x5c Output\obj\driver\driver_uart.o
 .com_periph.uart.get_flag
                0x0000000000000000       0x18 Output\obj\driver\driver_uart.o
 .com_periph.uart.clear_flag
                0x0000000000000000       0x34 Output\obj\driver\driver_uart.o
 .text          0x0000000000000000        0x0 Output\obj\driver\driver_wdt.o
 .data          0x0000000000000000        0x0 Output\obj\driver\driver_wdt.o
 .bss           0x0000000000000000        0x0 Output\obj\driver\driver_wdt.o
 .text.wdt_cmd  0x0000000000000000       0x1a Output\obj\driver\driver_wdt.o
 .text.wdt_reset_cmd
                0x0000000000000000       0x1e Output\obj\driver\driver_wdt.o
 .text.wdt_it_cmd
                0x0000000000000000       0x16 Output\obj\driver\driver_wdt.o
 .text.wdt_clk_select
                0x0000000000000000       0x1c Output\obj\driver\driver_wdt.o
 .text.wdt_time_select
                0x0000000000000000       0x1a Output\obj\driver\driver_wdt.o
 .text.wdt_get_flag
                0x0000000000000000        0x8 Output\obj\driver\driver_wdt.o
 .text.wdt_clear
                0x0000000000000000        0xe Output\obj\driver\driver_wdt.o
 .comment       0x0000000000000000       0x12 Output\obj\driver\driver_wdt.o
 .text          0x0000000000000000        0x0 Output\obj\modules\utils\utils_ring_buffer.o
 .data          0x0000000000000000        0x0 Output\obj\modules\utils\utils_ring_buffer.o
 .bss           0x0000000000000000        0x0 Output\obj\modules\utils\utils_ring_buffer.o
 .text.utils_ring_buf_init
                0x0000000000000000       0x28 Output\obj\modules\utils\utils_ring_buffer.o
 .text.utils_ring_buf_clear
                0x0000000000000000       0x10 Output\obj\modules\utils\utils_ring_buffer.o
 .com_text.ring_buf.write
                0x0000000000000000       0x82 Output\obj\modules\utils\utils_ring_buffer.o
 .com_text.ring_buf.read
                0x0000000000000000       0x74 Output\obj\modules\utils\utils_ring_buffer.o
 .com_text.ring_buf.get
                0x0000000000000000       0x4c Output\obj\modules\utils\utils_ring_buffer.o
 .com_text.ring_buf.dl_get
                0x0000000000000000        0x4 Output\obj\modules\utils\utils_ring_buffer.o
 .com_text.ring_buf.tl_get
                0x0000000000000000        0x4 Output\obj\modules\utils\utils_ring_buffer.o
 .comment       0x0000000000000000       0x12 Output\obj\modules\utils\utils_ring_buffer.o
 .text          0x0000000000000000        0x0 Output\obj\project\ble_all_roles\app\func.o
 .data          0x0000000000000000        0x0 Output\obj\project\ble_all_roles\app\func.o
 .bss           0x0000000000000000        0x0 Output\obj\project\ble_all_roles\app\func.o
 .text          0x0000000000000000        0x0 Output\obj\project\ble_all_roles\app\func_bt.o
 .data          0x0000000000000000        0x0 Output\obj\project\ble_all_roles\app\func_bt.o
 .bss           0x0000000000000000        0x0 Output\obj\project\ble_all_roles\app\func_bt.o
 .text          0x0000000000000000        0x0 Output\obj\project\ble_all_roles\app\func_idle.o
 .data          0x0000000000000000        0x0 Output\obj\project\ble_all_roles\app\func_idle.o
 .bss           0x0000000000000000        0x0 Output\obj\project\ble_all_roles\app\func_idle.o
 .text          0x0000000000000000        0x0 Output\obj\project\ble_all_roles\app\func_iodm.o
 .data          0x0000000000000000        0x0 Output\obj\project\ble_all_roles\app\func_iodm.o
 .bss           0x0000000000000000        0x0 Output\obj\project\ble_all_roles\app\func_iodm.o
 .comment       0x0000000000000000       0x12 Output\obj\project\ble_all_roles\app\func_iodm.o
 .text          0x0000000000000000        0x0 Output\obj\project\ble_all_roles\app\func_le_bqb_rf.o
 .data          0x0000000000000000        0x0 Output\obj\project\ble_all_roles\app\func_le_bqb_rf.o
 .bss           0x0000000000000000        0x0 Output\obj\project\ble_all_roles\app\func_le_bqb_rf.o
 .comment       0x0000000000000000       0x12 Output\obj\project\ble_all_roles\app\func_le_bqb_rf.o
 .text          0x0000000000000000        0x0 Output\obj\project\ble_all_roles\app\func_le_fcc.o
 .data          0x0000000000000000        0x0 Output\obj\project\ble_all_roles\app\func_le_fcc.o
 .bss           0x0000000000000000        0x0 Output\obj\project\ble_all_roles\app\func_le_fcc.o
 .comment       0x0000000000000000       0x12 Output\obj\project\ble_all_roles\app\func_le_fcc.o
 .text          0x0000000000000000        0x0 Output\obj\project\ble_all_roles\app\func_lowpwr.o
 .data          0x0000000000000000        0x0 Output\obj\project\ble_all_roles\app\func_lowpwr.o
 .bss           0x0000000000000000        0x0 Output\obj\project\ble_all_roles\app\func_lowpwr.o
 .text.lowpwr.deep_sleep_wk
                0x0000000000000000       0x52 Output\obj\project\ble_all_roles\app\func_lowpwr.o
 .text.lowpwr.deep_sleep
                0x0000000000000000      0x142 Output\obj\project\ble_all_roles\app\func_lowpwr.o
 .rodata.__func__.5069
                0x0000000000000000       0x11 Output\obj\project\ble_all_roles\app\func_lowpwr.o
 .text          0x0000000000000000        0x0 Output\obj\project\ble_all_roles\app\func_tbox.o
 .data          0x0000000000000000        0x0 Output\obj\project\ble_all_roles\app\func_tbox.o
 .bss           0x0000000000000000        0x0 Output\obj\project\ble_all_roles\app\func_tbox.o
 .comment       0x0000000000000000       0x12 Output\obj\project\ble_all_roles\app\func_tbox.o
 .text          0x0000000000000000        0x0 Output\obj\project\ble_all_roles\app\msg_bt.o
 .data          0x0000000000000000        0x0 Output\obj\project\ble_all_roles\app\msg_bt.o
 .bss           0x0000000000000000        0x0 Output\obj\project\ble_all_roles\app\msg_bt.o
 .text          0x0000000000000000        0x0 Output\obj\project\ble_all_roles\app\msg_idle.o
 .data          0x0000000000000000        0x0 Output\obj\project\ble_all_roles\app\msg_idle.o
 .bss           0x0000000000000000        0x0 Output\obj\project\ble_all_roles\app\msg_idle.o
 .text          0x0000000000000000        0x0 Output\obj\project\ble_all_roles\app\msg_iodm.o
 .data          0x0000000000000000        0x0 Output\obj\project\ble_all_roles\app\msg_iodm.o
 .bss           0x0000000000000000        0x0 Output\obj\project\ble_all_roles\app\msg_iodm.o
 .text.func.iodm.msg
                0x0000000000000000        0x8 Output\obj\project\ble_all_roles\app\msg_iodm.o
 .comment       0x0000000000000000       0x12 Output\obj\project\ble_all_roles\app\msg_iodm.o
 .text          0x0000000000000000        0x0 Output\obj\project\ble_all_roles\app\msg_le_bqb_rf.o
 .data          0x0000000000000000        0x0 Output\obj\project\ble_all_roles\app\msg_le_bqb_rf.o
 .bss           0x0000000000000000        0x0 Output\obj\project\ble_all_roles\app\msg_le_bqb_rf.o
 .text.func.le_bqb_rf.msg
                0x0000000000000000        0x8 Output\obj\project\ble_all_roles\app\msg_le_bqb_rf.o
 .comment       0x0000000000000000       0x12 Output\obj\project\ble_all_roles\app\msg_le_bqb_rf.o
 .text          0x0000000000000000        0x0 Output\obj\project\ble_all_roles\app\msg_le_fcc.o
 .data          0x0000000000000000        0x0 Output\obj\project\ble_all_roles\app\msg_le_fcc.o
 .bss           0x0000000000000000        0x0 Output\obj\project\ble_all_roles\app\msg_le_fcc.o
 .text.func.le_fcc.msg
                0x0000000000000000        0x8 Output\obj\project\ble_all_roles\app\msg_le_fcc.o
 .comment       0x0000000000000000       0x12 Output\obj\project\ble_all_roles\app\msg_le_fcc.o
 .text          0x0000000000000000        0x0 Output\obj\project\ble_all_roles\app\msg_tbox.o
 .data          0x0000000000000000        0x0 Output\obj\project\ble_all_roles\app\msg_tbox.o
 .bss           0x0000000000000000        0x0 Output\obj\project\ble_all_roles\app\msg_tbox.o
 .comment       0x0000000000000000       0x12 Output\obj\project\ble_all_roles\app\msg_tbox.o
 .text          0x0000000000000000        0x0 Output\obj\project\ble_all_roles\ble\ble_app.o
 .data          0x0000000000000000        0x0 Output\obj\project\ble_all_roles\ble\ble_app.o
 .bss           0x0000000000000000        0x0 Output\obj\project\ble_all_roles\ble\ble_app.o
 .text          0x0000000000000000        0x0 Output\obj\project\ble_all_roles\ble\ble_client.o
 .data          0x0000000000000000        0x0 Output\obj\project\ble_all_roles\ble\ble_client.o
 .bss           0x0000000000000000        0x0 Output\obj\project\ble_all_roles\ble\ble_client.o
 .text.ble_get_server_info
                0x0000000000000000       0x14 Output\obj\project\ble_all_roles\ble\ble_client.o
 .text          0x0000000000000000        0x0 Output\obj\project\ble_all_roles\ble\ble_fota_service.o
 .data          0x0000000000000000        0x0 Output\obj\project\ble_all_roles\ble\ble_fota_service.o
 .bss           0x0000000000000000        0x0 Output\obj\project\ble_all_roles\ble\ble_fota_service.o
 .comment       0x0000000000000000       0x12 Output\obj\project\ble_all_roles\ble\ble_fota_service.o
 .text          0x0000000000000000        0x0 Output\obj\project\ble_all_roles\ble\ble_init.o
 .data          0x0000000000000000        0x0 Output\obj\project\ble_all_roles\ble\ble_init.o
 .bss           0x0000000000000000        0x0 Output\obj\project\ble_all_roles\ble\ble_init.o
 .text.ble_get_work_mode
                0x0000000000000000        0xa Output\obj\project\ble_all_roles\ble\ble_init.o
 .text          0x0000000000000000        0x0 Output\obj\project\ble_all_roles\ble\ble_proc.o
 .data          0x0000000000000000        0x0 Output\obj\project\ble_all_roles\ble\ble_proc.o
 .bss           0x0000000000000000        0x0 Output\obj\project\ble_all_roles\ble\ble_proc.o
 .text          0x0000000000000000        0x0 Output\obj\project\ble_all_roles\ble\ble_service.o
 .data          0x0000000000000000        0x0 Output\obj\project\ble_all_roles\ble\ble_service.o
 .bss           0x0000000000000000        0x0 Output\obj\project\ble_all_roles\ble\ble_service.o
 .rodata.scan_data_const
                0x0000000000000000        0x0 Output\obj\project\ble_all_roles\ble\ble_service.o
 .text          0x0000000000000000        0x0 Output\obj\project\ble_all_roles\ble\ble_user_service.o
 .data          0x0000000000000000        0x0 Output\obj\project\ble_all_roles\ble\ble_user_service.o
 .bss           0x0000000000000000        0x0 Output\obj\project\ble_all_roles\ble\ble_user_service.o
 .text          0x0000000000000000        0x0 Output\obj\project\ble_all_roles\bsp\bsp_charge.o
 .data          0x0000000000000000        0x0 Output\obj\project\ble_all_roles\bsp\bsp_charge.o
 .bss           0x0000000000000000        0x0 Output\obj\project\ble_all_roles\bsp\bsp_charge.o
 .text          0x0000000000000000        0x0 Output\obj\project\ble_all_roles\bsp\bsp_huart.o
 .data          0x0000000000000000        0x0 Output\obj\project\ble_all_roles\bsp\bsp_huart.o
 .bss           0x0000000000000000        0x0 Output\obj\project\ble_all_roles\bsp\bsp_huart.o
 .comment       0x0000000000000000       0x12 Output\obj\project\ble_all_roles\bsp\bsp_huart.o
 .text          0x0000000000000000        0x0 Output\obj\project\ble_all_roles\bsp\bsp_huart_iodm.o
 .data          0x0000000000000000        0x0 Output\obj\project\ble_all_roles\bsp\bsp_huart_iodm.o
 .bss           0x0000000000000000        0x0 Output\obj\project\ble_all_roles\bsp\bsp_huart_iodm.o
 .comment       0x0000000000000000       0x12 Output\obj\project\ble_all_roles\bsp\bsp_huart_iodm.o
 .text          0x0000000000000000        0x0 Output\obj\project\ble_all_roles\bsp\bsp_io_key.o
 .data          0x0000000000000000        0x0 Output\obj\project\ble_all_roles\bsp\bsp_io_key.o
 .bss           0x0000000000000000        0x0 Output\obj\project\ble_all_roles\bsp\bsp_io_key.o
 .bss.key_io_table_column
                0x0000000000000000        0x0 Output\obj\project\ble_all_roles\bsp\bsp_io_key.o
 .text          0x0000000000000000        0x0 Output\obj\project\ble_all_roles\bsp\bsp_key.o
 .data          0x0000000000000000        0x0 Output\obj\project\ble_all_roles\bsp\bsp_key.o
 .bss           0x0000000000000000        0x0 Output\obj\project\ble_all_roles\bsp\bsp_key.o
 .com_text.key.get.power_on
                0x0000000000000000        0xe Output\obj\project\ble_all_roles\bsp\bsp_key.o
 .text          0x0000000000000000        0x0 Output\obj\project\ble_all_roles\bsp\bsp_led.o
 .data          0x0000000000000000        0x0 Output\obj\project\ble_all_roles\bsp\bsp_led.o
 .bss           0x0000000000000000        0x0 Output\obj\project\ble_all_roles\bsp\bsp_led.o
 .text          0x0000000000000000        0x0 Output\obj\project\ble_all_roles\bsp\bsp_param.o
 .data          0x0000000000000000        0x0 Output\obj\project\ble_all_roles\bsp\bsp_param.o
 .bss           0x0000000000000000        0x0 Output\obj\project\ble_all_roles\bsp\bsp_param.o
 .text.bsp.param.fota
                0x0000000000000000       0xa8 Output\obj\project\ble_all_roles\bsp\bsp_param.o
 .text          0x0000000000000000        0x0 Output\obj\project\ble_all_roles\bsp\bsp_saradc.o
 .data          0x0000000000000000        0x0 Output\obj\project\ble_all_roles\bsp\bsp_saradc.o
 .bss           0x0000000000000000        0x0 Output\obj\project\ble_all_roles\bsp\bsp_saradc.o
 .text          0x0000000000000000        0x0 Output\obj\project\ble_all_roles\bsp\bsp_saradc_key.o
 .data          0x0000000000000000        0x0 Output\obj\project\ble_all_roles\bsp\bsp_saradc_key.o
 .bss           0x0000000000000000        0x0 Output\obj\project\ble_all_roles\bsp\bsp_saradc_key.o
 .comment       0x0000000000000000       0x12 Output\obj\project\ble_all_roles\bsp\bsp_saradc_key.o
 .text          0x0000000000000000        0x0 Output\obj\project\ble_all_roles\bsp\bsp_saradc_vbat.o
 .data          0x0000000000000000        0x0 Output\obj\project\ble_all_roles\bsp\bsp_saradc_vbat.o
 .bss           0x0000000000000000        0x0 Output\obj\project\ble_all_roles\bsp\bsp_saradc_vbat.o
 .text.bsp_get_vbat_level
                0x0000000000000000       0x42 Output\obj\project\ble_all_roles\bsp\bsp_saradc_vbat.o
 .rodata.vbat_param
                0x0000000000000000        0xa Output\obj\project\ble_all_roles\bsp\bsp_saradc_vbat.o
 .text          0x0000000000000000        0x0 Output\obj\project\ble_all_roles\bsp\bsp_sys.o
 .data          0x0000000000000000        0x0 Output\obj\project\ble_all_roles\bsp\bsp_sys.o
 .bss           0x0000000000000000        0x0 Output\obj\project\ble_all_roles\bsp\bsp_sys.o
 .text          0x0000000000000000        0x0 Output\obj\project\ble_all_roles\bsp\bsp_touch_key.o
 .data          0x0000000000000000        0x0 Output\obj\project\ble_all_roles\bsp\bsp_touch_key.o
 .bss           0x0000000000000000        0x0 Output\obj\project\ble_all_roles\bsp\bsp_touch_key.o
 .comment       0x0000000000000000       0x12 Output\obj\project\ble_all_roles\bsp\bsp_touch_key.o
 .text          0x0000000000000000        0x0 Output\obj\project\ble_all_roles\bsp\bsp_uart_debug.o
 .data          0x0000000000000000        0x0 Output\obj\project\ble_all_roles\bsp\bsp_uart_debug.o
 .bss           0x0000000000000000        0x0 Output\obj\project\ble_all_roles\bsp\bsp_uart_debug.o
 .text          0x0000000000000000        0x0 Output\obj\project\ble_all_roles\main.o
 .data          0x0000000000000000        0x0 Output\obj\project\ble_all_roles\main.o
 .bss           0x0000000000000000        0x0 Output\obj\project\ble_all_roles\main.o
 .text          0x0000000000000000        0x0 Output\obj\project\ble_all_roles\production_test\iodm\prod_test_iodm.o
 .data          0x0000000000000000        0x0 Output\obj\project\ble_all_roles\production_test\iodm\prod_test_iodm.o
 .bss           0x0000000000000000        0x0 Output\obj\project\ble_all_roles\production_test\iodm\prod_test_iodm.o
 .comment       0x0000000000000000       0x12 Output\obj\project\ble_all_roles\production_test\iodm\prod_test_iodm.o
 .text          0x0000000000000000        0x0 Output\obj\project\ble_all_roles\production_test\prod_test.o
 .data          0x0000000000000000        0x0 Output\obj\project\ble_all_roles\production_test\prod_test.o
 .bss           0x0000000000000000        0x0 Output\obj\project\ble_all_roles\production_test\prod_test.o
 .text          0x0000000000000000        0x0 Output\obj\project\ble_all_roles\production_test\tbox\prod_test_tbox.o
 .data          0x0000000000000000        0x0 Output\obj\project\ble_all_roles\production_test\tbox\prod_test_tbox.o
 .bss           0x0000000000000000        0x0 Output\obj\project\ble_all_roles\production_test\tbox\prod_test_tbox.o
 .comment       0x0000000000000000       0x12 Output\obj\project\ble_all_roles\production_test\tbox\prod_test_tbox.o
 .text          0x0000000000000000        0x0 Output\obj\project\ble_all_roles\production_test\tbox\tbox_key.o
 .data          0x0000000000000000        0x0 Output\obj\project\ble_all_roles\production_test\tbox\tbox_key.o
 .bss           0x0000000000000000        0x0 Output\obj\project\ble_all_roles\production_test\tbox\tbox_key.o
 .comment       0x0000000000000000       0x12 Output\obj\project\ble_all_roles\production_test\tbox\tbox_key.o
 .text          0x0000000000000000        0x0 Output\obj\project\ble_all_roles\production_test\tbox\tbox_voice.o
 .data          0x0000000000000000        0x0 Output\obj\project\ble_all_roles\production_test\tbox\tbox_voice.o
 .bss           0x0000000000000000        0x0 Output\obj\project\ble_all_roles\production_test\tbox\tbox_voice.o
 .comment       0x0000000000000000       0x12 Output\obj\project\ble_all_roles\production_test\tbox\tbox_voice.o
 .text          0x0000000000000000        0x0 Output\obj\project\ble_all_roles\production_test\tbox\tbox_voice_sdadc.o
 .data          0x0000000000000000        0x0 Output\obj\project\ble_all_roles\production_test\tbox\tbox_voice_sdadc.o
 .bss           0x0000000000000000        0x0 Output\obj\project\ble_all_roles\production_test\tbox\tbox_voice_sdadc.o
 .comment       0x0000000000000000       0x12 Output\obj\project\ble_all_roles\production_test\tbox\tbox_voice_sdadc.o
 .text          0x0000000000000000        0x0 Output\obj\project\ble_all_roles\strong_symbol.o
 .data          0x0000000000000000        0x0 Output\obj\project\ble_all_roles\strong_symbol.o
 .bss           0x0000000000000000        0x0 Output\obj\project\ble_all_roles\strong_symbol.o
 .text          0x0000000000000000        0x0 ..\..\libs\cpu\libplatform.a(sdadc.o)
 .data          0x0000000000000000        0x0 ..\..\libs\cpu\libplatform.a(sdadc.o)
 .bss           0x0000000000000000        0x0 ..\..\libs\cpu\libplatform.a(sdadc.o)
 .text.mic_trimin
                0x0000000000000000       0x32 ..\..\libs\cpu\libplatform.a(sdadc.o)
 .text.mic_adc_init
                0x0000000000000000      0x194 ..\..\libs\cpu\libplatform.a(sdadc.o)
 .text.mic_adc_deinit
                0x0000000000000000       0x14 ..\..\libs\cpu\libplatform.a(sdadc.o)
 .text.mic_bias_open
                0x0000000000000000       0x30 ..\..\libs\cpu\libplatform.a(sdadc.o)
 .text.mic_bias_close
                0x0000000000000000       0x10 ..\..\libs\cpu\libplatform.a(sdadc.o)
 .text.mic_bias_level_set
                0x0000000000000000       0x20 ..\..\libs\cpu\libplatform.a(sdadc.o)
 .text.mic_analog_gain_set
                0x0000000000000000       0x14 ..\..\libs\cpu\libplatform.a(sdadc.o)
 .text.sdadc_done_callback_set
                0x0000000000000000        0xc ..\..\libs\cpu\libplatform.a(sdadc.o)
 .com_text.sdadc.done
                0x0000000000000000        0xe ..\..\libs\cpu\libplatform.a(sdadc.o)
 .com_text.irq.sdadc
                0x0000000000000000       0x26 ..\..\libs\cpu\libplatform.a(sdadc.o)
 .sbss.p_sdadc_done
                0x0000000000000000        0x4 ..\..\libs\cpu\libplatform.a(sdadc.o)
 .comment       0x0000000000000000       0x13 ..\..\libs\cpu\libplatform.a(sdadc.o)
 .riscv.attributes
                0x0000000000000000       0x32 ..\..\libs\cpu\libplatform.a(sdadc.o)
 .text          0x0000000000000000        0x0 ..\..\libs\cpu\libplatform.a(cm.o)
 .data          0x0000000000000000        0x0 ..\..\libs\cpu\libplatform.a(cm.o)
 .bss           0x0000000000000000        0x0 ..\..\libs\cpu\libplatform.a(cm.o)
 .rodata.cm_move_allpages.str1.4
                0x0000000000000000       0x3a ..\..\libs\cpu\libplatform.a(cm.o)
 .text.cm_move_allpages
                0x0000000000000000      0x140 ..\..\libs\cpu\libplatform.a(cm.o)
 .text.cm_get_startaddr
                0x0000000000000000        0xa ..\..\libs\cpu\libplatform.a(cm.o)
 .text.cm_get_area
                0x0000000000000000       0x10 ..\..\libs\cpu\libplatform.a(cm.o)
 .text.cm_release_all
                0x0000000000000000       0x82 ..\..\libs\cpu\libplatform.a(cm.o)
 .text.cm_read8
                0x0000000000000000       0x28 ..\..\libs\cpu\libplatform.a(cm.o)
 .text.cm_read16
                0x0000000000000000       0x28 ..\..\libs\cpu\libplatform.a(cm.o)
 .text.cm_read32
                0x0000000000000000       0x24 ..\..\libs\cpu\libplatform.a(cm.o)
 .text.cm_write8
                0x0000000000000000       0x28 ..\..\libs\cpu\libplatform.a(cm.o)
 .text.cm_write16
                0x0000000000000000       0x28 ..\..\libs\cpu\libplatform.a(cm.o)
 .text.cm_write32
                0x0000000000000000       0x24 ..\..\libs\cpu\libplatform.a(cm.o)
 .text.cm_clear
                0x0000000000000000       0x60 ..\..\libs\cpu\libplatform.a(cm.o)
 .text          0x0000000000000000        0x0 ..\..\libs\cpu\libplatform.a(os_flash.o)
 .data          0x0000000000000000        0x0 ..\..\libs\cpu\libplatform.a(os_flash.o)
 .bss           0x0000000000000000        0x0 ..\..\libs\cpu\libplatform.a(os_flash.o)
 .com_text.spiflash.id
                0x0000000000000000       0x82 ..\..\libs\cpu\libplatform.a(os_flash.o)
 .com_text.spiflash.protect.weak
                0x0000000000000000       0x60 ..\..\libs\cpu\libplatform.a(os_flash.o)
 .com_text.spiflash.erase_2
                0x0000000000000000       0x76 ..\..\libs\cpu\libplatform.a(os_flash.o)
 .com_text.spiflash.erase_32k
                0x0000000000000000       0x72 ..\..\libs\cpu\libplatform.a(os_flash.o)
 .com_text.spiflash.erase_64k
                0x0000000000000000       0x72 ..\..\libs\cpu\libplatform.a(os_flash.o)
 .text          0x0000000000000000        0x0 ..\..\libs\cpu\libplatform.a(xcfg.o)
 .data          0x0000000000000000        0x0 ..\..\libs\cpu\libplatform.a(xcfg.o)
 .bss           0x0000000000000000        0x0 ..\..\libs\cpu\libplatform.a(xcfg.o)
 .text          0x0000000000000000        0x0 ..\..\libs\cpu\libplatform.a(main.o)
 .data          0x0000000000000000        0x0 ..\..\libs\cpu\libplatform.a(main.o)
 .bss           0x0000000000000000        0x0 ..\..\libs\cpu\libplatform.a(main.o)
 .text.compiler
                0x0000000000000000       0x20 ..\..\libs\cpu\libplatform.a(main.o)
 .text          0x0000000000000000        0x0 ..\..\libs\cpu\libplatform.a(interrupt.o)
 .data          0x0000000000000000        0x0 ..\..\libs\cpu\libplatform.a(interrupt.o)
 .bss           0x0000000000000000        0x0 ..\..\libs\cpu\libplatform.a(interrupt.o)
 .rodata.watch_point_set.str1.4
                0x0000000000000000       0x19 ..\..\libs\cpu\libplatform.a(interrupt.o)
 .text.watch_point_set
                0x0000000000000000       0x48 ..\..\libs\cpu\libplatform.a(interrupt.o)
 .text.wdt_init
                0x0000000000000000       0x3a ..\..\libs\cpu\libplatform.a(interrupt.o)
 .text.usb_irq_init
                0x0000000000000000       0x2e ..\..\libs\cpu\libplatform.a(interrupt.o)
 .text          0x0000000000000000        0x0 ..\..\libs\cpu\libplatform.a(startup.o)
 .data          0x0000000000000000        0x0 ..\..\libs\cpu\libplatform.a(startup.o)
 .bss           0x0000000000000000        0x0 ..\..\libs\cpu\libplatform.a(startup.o)
 .text.mem_heap_size_get
                0x0000000000000000        0x8 ..\..\libs\cpu\libplatform.a(startup.o)
 .text.thread_cfg_get
                0x0000000000000000        0x4 ..\..\libs\cpu\libplatform.a(startup.o)
 .text.thread_bthw_create
                0x0000000000000000        0x2 ..\..\libs\cpu\libplatform.a(startup.o)
 .rodata.thread_driver_create.str1.4
                0x0000000000000000        0x8 ..\..\libs\cpu\libplatform.a(startup.o)
 .text.thread_driver_create
                0x0000000000000000       0x88 ..\..\libs\cpu\libplatform.a(startup.o)
 .rodata.thread_aupcm_create.str1.4
                0x0000000000000000        0x4 ..\..\libs\cpu\libplatform.a(startup.o)
 .text.thread_aupcm_create
                0x0000000000000000       0x78 ..\..\libs\cpu\libplatform.a(startup.o)
 .text.thread_create_callback
                0x0000000000000000       0x28 ..\..\libs\cpu\libplatform.a(startup.o)
 .bss.thread.aupcm
                0x0000000000000000        0x4 ..\..\libs\cpu\libplatform.a(startup.o)
 .bss.thread.driver
                0x0000000000000000        0x8 ..\..\libs\cpu\libplatform.a(startup.o)
 .mem_heap      0x0000000000000000     0x1c00 ..\..\libs\cpu\libplatform.a(startup.o)
 .text          0x0000000000000000        0x0 ..\..\libs\cpu\libplatform.a(sys_hook.o)
 .data          0x0000000000000000        0x0 ..\..\libs\cpu\libplatform.a(sys_hook.o)
 .bss           0x0000000000000000        0x0 ..\..\libs\cpu\libplatform.a(sys_hook.o)
 .text          0x0000000000000000        0x0 ..\..\libs\cpu\libplatform.a(thread_aupcm.o)
 .data          0x0000000000000000        0x0 ..\..\libs\cpu\libplatform.a(thread_aupcm.o)
 .bss           0x0000000000000000        0x0 ..\..\libs\cpu\libplatform.a(thread_aupcm.o)
 .com_text.thread.driver
                0x0000000000000000       0x30 ..\..\libs\cpu\libplatform.a(thread_aupcm.o)
 .com_text.thread.aupcm
                0x0000000000000000       0x64 ..\..\libs\cpu\libplatform.a(thread_aupcm.o)
 .comment       0x0000000000000000       0x13 ..\..\libs\cpu\libplatform.a(thread_aupcm.o)
 .riscv.attributes
                0x0000000000000000       0x32 ..\..\libs\cpu\libplatform.a(thread_aupcm.o)
 .text          0x0000000000000000        0x0 ..\..\libs\cpu\libplatform.a(thread_driver.o)
 .data          0x0000000000000000        0x0 ..\..\libs\cpu\libplatform.a(thread_driver.o)
 .bss           0x0000000000000000        0x0 ..\..\libs\cpu\libplatform.a(thread_driver.o)
 .com_text.thread.driver
                0x0000000000000000       0x26 ..\..\libs\cpu\libplatform.a(thread_driver.o)
 .com_text.thread.driver.usb
                0x0000000000000000       0x4e ..\..\libs\cpu\libplatform.a(thread_driver.o)
 .com_text.thread.driver.vs
                0x0000000000000000       0x4e ..\..\libs\cpu\libplatform.a(thread_driver.o)
 .text.thread.driver.usb
                0x0000000000000000       0x38 ..\..\libs\cpu\libplatform.a(thread_driver.o)
 .text.thread.driver.vs
                0x0000000000000000       0x38 ..\..\libs\cpu\libplatform.a(thread_driver.o)
 .com_text.thread.driver.enter
                0x0000000000000000       0x60 ..\..\libs\cpu\libplatform.a(thread_driver.o)
 .sbss.thread_driver_usb_enter_func
                0x0000000000000000        0x4 ..\..\libs\cpu\libplatform.a(thread_driver.o)
 .sbss.thread_driver_vs_enter_func
                0x0000000000000000        0x4 ..\..\libs\cpu\libplatform.a(thread_driver.o)
 .comment       0x0000000000000000       0x13 ..\..\libs\cpu\libplatform.a(thread_driver.o)
 .riscv.attributes
                0x0000000000000000       0x32 ..\..\libs\cpu\libplatform.a(thread_driver.o)
 .text          0x0000000000000000        0x0 ..\..\libs\cpu\libplatform.a(pll.o)
 .data          0x0000000000000000        0x0 ..\..\libs\cpu\libplatform.a(pll.o)
 .bss           0x0000000000000000        0x0 ..\..\libs\cpu\libplatform.a(pll.o)
 .text.pll_clk_nhz_get
                0x0000000000000000       0x22 ..\..\libs\cpu\libplatform.a(pll.o)
 .text          0x0000000000000000        0x0 ..\..\libs\cpu\libplatform.a(pmu.o)
 .data          0x0000000000000000        0x0 ..\..\libs\cpu\libplatform.a(pmu.o)
 .bss           0x0000000000000000        0x0 ..\..\libs\cpu\libplatform.a(pmu.o)
 .com_text.trim.vddio_get
                0x0000000000000000        0xa ..\..\libs\cpu\libplatform.a(pmu.o)
 .com_text.trim.vbg_get
                0x0000000000000000        0xa ..\..\libs\cpu\libplatform.a(pmu.o)
 .com_text.trim.vddio_set
                0x0000000000000000       0x2c ..\..\libs\cpu\libplatform.a(pmu.o)
 .com_text.trim.core_set
                0x0000000000000000       0x16 ..\..\libs\cpu\libplatform.a(pmu.o)
 .com_text.trim.lvd_get
                0x0000000000000000        0xa ..\..\libs\cpu\libplatform.a(pmu.o)
 .com_text.pmu.vddbt_set
                0x0000000000000000        0xe ..\..\libs\cpu\libplatform.a(pmu.o)
 .com_text.pmu.vddbt_get
                0x0000000000000000        0x8 ..\..\libs\cpu\libplatform.a(pmu.o)
 .text          0x0000000000000000        0x0 ..\..\libs\cpu\libplatform.a(rc.o)
 .data          0x0000000000000000        0x0 ..\..\libs\cpu\libplatform.a(rc.o)
 .bss           0x0000000000000000        0x0 ..\..\libs\cpu\libplatform.a(rc.o)
 .text.compiler
                0x0000000000000000        0x2 ..\..\libs\cpu\libplatform.a(rc.o)
 .text          0x0000000000000000        0x0 ..\..\libs\cpu\libplatform.a(reset.o)
 .data          0x0000000000000000        0x0 ..\..\libs\cpu\libplatform.a(reset.o)
 .bss           0x0000000000000000        0x0 ..\..\libs\cpu\libplatform.a(reset.o)
 .text          0x0000000000000000        0x0 ..\..\libs\cpu\libplatform.a(spiflash.o)
 .data          0x0000000000000000        0x0 ..\..\libs\cpu\libplatform.a(spiflash.o)
 .bss           0x0000000000000000        0x0 ..\..\libs\cpu\libplatform.a(spiflash.o)
 .com_text.spiflash.w_en
                0x0000000000000000       0x32 ..\..\libs\cpu\libplatform.a(spiflash.o)
 .com_text.spiflash.rssr
                0x0000000000000000       0x42 ..\..\libs\cpu\libplatform.a(spiflash.o)
 .com_text.spiflash.busy
                0x0000000000000000       0x24 ..\..\libs\cpu\libplatform.a(spiflash.o)
 .com_text.spiflash
                0x0000000000000000       0x84 ..\..\libs\cpu\libplatform.a(spiflash.o)
 .com_text.spiflash.refactor
                0x0000000000000000      0x112 ..\..\libs\cpu\libplatform.a(spiflash.o)
 .com_text.spiflash.wrsr
                0x0000000000000000       0x46 ..\..\libs\cpu\libplatform.a(spiflash.o)
 .com_text.spiflash.protect.en
                0x0000000000000000        0x4 ..\..\libs\cpu\libplatform.a(spiflash.o)
 .com_text.spiflash.protect_do
                0x0000000000000000       0x68 ..\..\libs\cpu\libplatform.a(spiflash.o)
 .com_text.spiflash.is_protect
                0x0000000000000000       0x50 ..\..\libs\cpu\libplatform.a(spiflash.o)
 .com_text.spiflash.read_kick
                0x0000000000000000       0x20 ..\..\libs\cpu\libplatform.a(spiflash.o)
 .com_text.spiflash.read_wait
                0x0000000000000000       0x30 ..\..\libs\cpu\libplatform.a(spiflash.o)
 .com_text.spiflash.byte_addr
                0x0000000000000000      0x164 ..\..\libs\cpu\libplatform.a(spiflash.o)
 .com_text.spiflash.erase_32k
                0x0000000000000000       0x50 ..\..\libs\cpu\libplatform.a(spiflash.o)
 .com_text.spiflash.erase_32k.byte_addr
                0x0000000000000000       0x48 ..\..\libs\cpu\libplatform.a(spiflash.o)
 .com_text.spiflash.erase_64k
                0x0000000000000000       0x50 ..\..\libs\cpu\libplatform.a(spiflash.o)
 .com_text.spiflash.erase_64k.byte_addr
                0x0000000000000000       0x48 ..\..\libs\cpu\libplatform.a(spiflash.o)
 .btmem.spi     0x0000000000000000       0x1c ..\..\libs\cpu\libplatform.a(spiflash.o)
 .text          0x0000000000000000        0x0 ..\..\libs\cpu\libplatform.a(debug.o)
 .data          0x0000000000000000        0x0 ..\..\libs\cpu\libplatform.a(debug.o)
 .bss           0x0000000000000000        0x0 ..\..\libs\cpu\libplatform.a(debug.o)
 .text.debug_dump_info_nanos_schedule
                0x0000000000000000        0x2 ..\..\libs\cpu\libplatform.a(debug.o)
 .text.debug_dump_info_nanos_timer
                0x0000000000000000        0x2 ..\..\libs\cpu\libplatform.a(debug.o)
 .text          0x0000000000000000        0x0 ..\..\libs\cpu\libplatform.a(fot_pack.o)
 .data          0x0000000000000000        0x0 ..\..\libs\cpu\libplatform.a(fot_pack.o)
 .bss           0x0000000000000000        0x0 ..\..\libs\cpu\libplatform.a(fot_pack.o)
 .text.ota_pack
                0x0000000000000000      0x590 ..\..\libs\cpu\libplatform.a(fot_pack.o)
 .text.ota_pack_deinit
                0x0000000000000000       0x2a ..\..\libs\cpu\libplatform.a(fot_pack.o)
 .text.ota_pack_get_curaddr
                0x0000000000000000        0xa ..\..\libs\cpu\libplatform.a(fot_pack.o)
 .text.ota_pack_get_err
                0x0000000000000000       0x14 ..\..\libs\cpu\libplatform.a(fot_pack.o)
 .text.ota_pack_done
                0x0000000000000000       0x56 ..\..\libs\cpu\libplatform.a(fot_pack.o)
 .text.fot.cache
                0x0000000000000000      0x1a6 ..\..\libs\cpu\libplatform.a(fot_pack.o)
 .text.ota_pack_breakpoint_info_read
                0x0000000000000000       0xde ..\..\libs\cpu\libplatform.a(fot_pack.o)
 .fot_data.com.pack
                0x0000000000000000       0x68 ..\..\libs\cpu\libplatform.a(fot_pack.o)
 .sbss.fot_update_init
                0x0000000000000000        0x1 ..\..\libs\cpu\libplatform.a(fot_pack.o)
 .sbss.spiflash_protect_dis
                0x0000000000000000        0x1 ..\..\libs\cpu\libplatform.a(fot_pack.o)
 .text          0x0000000000000000        0x0 ..\..\libs\cpu\libplatform.a(key.o)
 .data          0x0000000000000000        0x0 ..\..\libs\cpu\libplatform.a(key.o)
 .bss           0x0000000000000000        0x0 ..\..\libs\cpu\libplatform.a(key.o)
 .text          0x0000000000000000        0x0 ..\..\libs\cpu\libplatform.a(lock.o)
 .data          0x0000000000000000        0x0 ..\..\libs\cpu\libplatform.a(lock.o)
 .bss           0x0000000000000000        0x0 ..\..\libs\cpu\libplatform.a(lock.o)
 .rodata.lock_code_usbdev.str1.4
                0x0000000000000000       0x16 ..\..\libs\cpu\libplatform.a(lock.o)
 .text.lock_code_usbdev
                0x0000000000000000       0x54 ..\..\libs\cpu\libplatform.a(lock.o)
 .text.unlock_code_usbdev
                0x0000000000000000       0x38 ..\..\libs\cpu\libplatform.a(lock.o)
 .rodata.lock_code_alg.str1.4
                0x0000000000000000       0x1f ..\..\libs\cpu\libplatform.a(lock.o)
 .text.lock_code_alg
                0x0000000000000000       0x60 ..\..\libs\cpu\libplatform.a(lock.o)
 .text.unlock_code_alg
                0x0000000000000000       0x38 ..\..\libs\cpu\libplatform.a(lock.o)
 .text          0x0000000000000000        0x0 ..\..\libs\cpu\libplatform.a(patch.o)
 .data          0x0000000000000000        0x0 ..\..\libs\cpu\libplatform.a(patch.o)
 .bss           0x0000000000000000        0x0 ..\..\libs\cpu\libplatform.a(patch.o)
 .text          0x0000000000000000        0x0 ..\..\libs\cpu\libplatform.a(s_sys.o)
 .data          0x0000000000000000        0x0 ..\..\libs\cpu\libplatform.a(s_sys.o)
 .bss           0x0000000000000000        0x0 ..\..\libs\cpu\libplatform.a(s_sys.o)
 .text          0x0000000000000000        0x0 ..\..\libs\cpu\libplatform.a(sleep.o)
 .data          0x0000000000000000        0x0 ..\..\libs\cpu\libplatform.a(sleep.o)
 .bss           0x0000000000000000        0x0 ..\..\libs\cpu\libplatform.a(sleep.o)
 .text          0x0000000000000000        0x0 ..\..\libs\cpu\libplatform.a(sys.o)
 .data          0x0000000000000000        0x0 ..\..\libs\cpu\libplatform.a(sys.o)
 .bss           0x0000000000000000        0x0 ..\..\libs\cpu\libplatform.a(sys.o)
 .text.dbg_clk_out
                0x0000000000000000       0x46 ..\..\libs\cpu\libplatform.a(sys.o)
 .text.sys_get_rand_key
                0x0000000000000000       0x6c ..\..\libs\cpu\libplatform.a(sys.o)
 .text.bt_restore_xosc_cap
                0x0000000000000000        0x8 ..\..\libs\cpu\libplatform.a(sys.o)
 .text.__divdi3
                0x0000000000000000       0x5c ..\..\libs\cpu\libplatform.a(sys.o)
 .text.__umoddi3
                0x0000000000000000       0x30 ..\..\libs\cpu\libplatform.a(sys.o)
 .text.get_random
                0x0000000000000000       0x26 ..\..\libs\cpu\libplatform.a(sys.o)
 .text.random_init
                0x0000000000000000        0xa ..\..\libs\cpu\libplatform.a(sys.o)
 .com_text.sys  0x0000000000000000       0x1e ..\..\libs\cpu\libplatform.a(sys.o)
 .text.sw_reset_source_get
                0x0000000000000000       0x2a ..\..\libs\cpu\libplatform.a(sys.o)
 .text          0x0000000000000000        0x0 ..\..\libs\cpu\libplatform.a(sys_clk.o)
 .data          0x0000000000000000        0x0 ..\..\libs\cpu\libplatform.a(sys_clk.o)
 .bss           0x0000000000000000        0x0 ..\..\libs\cpu\libplatform.a(sys_clk.o)
 .text.periph_cacl_clkdiv
                0x0000000000000000        0x2 ..\..\libs\cpu\libplatform.a(sys_clk.o)
 .text.sys_clk_lower_limit_lock
                0x0000000000000000       0x84 ..\..\libs\cpu\libplatform.a(sys_clk.o)
 .text.sys_clk_lower_limit_unlock
                0x0000000000000000       0x6c ..\..\libs\cpu\libplatform.a(sys_clk.o)
 .text.sys_clk_lower_limit_all_unlock
                0x0000000000000000       0x50 ..\..\libs\cpu\libplatform.a(sys_clk.o)
 .sbss.cfg_spiflash_speed_up_en
                0x0000000000000000        0x1 ..\..\libs\cpu\libplatform.a(sys_clk.o)
 .srodata.rtc_clk_div_coef
                0x0000000000000000        0x4 ..\..\libs\cpu\libplatform.a(sys_clk.o)
 .text          0x0000000000000000        0x0 ..\..\libs\cpu\libplatform.a(voltage_trim.o)
 .data          0x0000000000000000        0x0 ..\..\libs\cpu\libplatform.a(voltage_trim.o)
 .bss           0x0000000000000000        0x0 ..\..\libs\cpu\libplatform.a(voltage_trim.o)
 .rodata.voltage_trim_value_dump.str1.4
                0x0000000000000000       0xa1 ..\..\libs\cpu\libplatform.a(voltage_trim.o)
 .text.voltage_trim_value_dump
                0x0000000000000000       0xf8 ..\..\libs\cpu\libplatform.a(voltage_trim.o)
 .text          0x0000000000000000        0x0 ..\..\libs\cpu\libplatform.a(weak_symbol.o)
 .data          0x0000000000000000        0x0 ..\..\libs\cpu\libplatform.a(weak_symbol.o)
 .bss           0x0000000000000000        0x0 ..\..\libs\cpu\libplatform.a(weak_symbol.o)
 .text.xosc_get_xcfg
                0x0000000000000000        0x2 ..\..\libs\cpu\libplatform.a(weak_symbol.o)
 .text.param_xosc_read
                0x0000000000000000        0x2 ..\..\libs\cpu\libplatform.a(weak_symbol.o)
 .text.param_xosc_write
                0x0000000000000000        0x2 ..\..\libs\cpu\libplatform.a(weak_symbol.o)
 .text.sys_clk_change_callback
                0x0000000000000000        0x2 ..\..\libs\cpu\libplatform.a(weak_symbol.o)
 .text.uart_debug_init_callback
                0x0000000000000000        0x2 ..\..\libs\cpu\libplatform.a(weak_symbol.o)
 .text.dongle_alg_tbl_get
                0x0000000000000000        0x4 ..\..\libs\cpu\libplatform.a(weak_symbol.o)
 .text.dongle_soft_key_get
                0x0000000000000000        0x4 ..\..\libs\cpu\libplatform.a(weak_symbol.o)
 .text.bb_run_loop
                0x0000000000000000        0x2 ..\..\libs\cpu\libplatform.a(weak_symbol.o)
 .text.nanos_var_init
                0x0000000000000000       0x1c ..\..\libs\cpu\libplatform.a(weak_symbol.o)
 .text.btstack_message
                0x0000000000000000        0x4 ..\..\libs\cpu\libplatform.a(weak_symbol.o)
 .com_text.stack.api
                0x0000000000000000        0x4 ..\..\libs\cpu\libplatform.a(weak_symbol.o)
 .com_text.ret.stack.thread
                0x0000000000000000        0x2 ..\..\libs\cpu\libplatform.a(weak_symbol.o)
 .com_text.bb.isr
                0x0000000000000000        0x2 ..\..\libs\cpu\libplatform.a(weak_symbol.o)
 .com_text.isr  0x0000000000000000        0x2 ..\..\libs\cpu\libplatform.a(weak_symbol.o)
 .text.btstack_var_init
                0x0000000000000000        0x2 ..\..\libs\cpu\libplatform.a(weak_symbol.o)
 .com_text.stack.run_loop
                0x0000000000000000        0x2 ..\..\libs\cpu\libplatform.a(weak_symbol.o)
 .text.bb_patch_init
                0x0000000000000000        0x4 ..\..\libs\cpu\libplatform.a(weak_symbol.o)
 .text.bb_nanos_mem_init
                0x0000000000000000        0x2 ..\..\libs\cpu\libplatform.a(weak_symbol.o)
 .bss.heap_buf  0x0000000000000000       0x14 ..\..\libs\cpu\libplatform.a(weak_symbol.o)
 .bss.heap_size_buf
                0x0000000000000000        0xa ..\..\libs\cpu\libplatform.a(weak_symbol.o)
 .sbss.cfg_bt_work_mode
                0x0000000000000000        0x1 ..\..\libs\cpu\libplatform.a(weak_symbol.o)
 .text          0x0000000000000000        0x0 ..\..\libs\cpu\libplatform.a(sddac.o)
 .data          0x0000000000000000        0x0 ..\..\libs\cpu\libplatform.a(sddac.o)
 .bss           0x0000000000000000        0x0 ..\..\libs\cpu\libplatform.a(sddac.o)
 .text.sddac_done_callback_set
                0x0000000000000000        0xc ..\..\libs\cpu\libplatform.a(sddac.o)
 .com_text.sddac.done
                0x0000000000000000        0xe ..\..\libs\cpu\libplatform.a(sddac.o)
 .com_text.irq.sddac
                0x0000000000000000       0x2a ..\..\libs\cpu\libplatform.a(sddac.o)
 .sbss.p_sddac_done
                0x0000000000000000        0x4 ..\..\libs\cpu\libplatform.a(sddac.o)
 .comment       0x0000000000000000       0x13 ..\..\libs\cpu\libplatform.a(sddac.o)
 .riscv.attributes
                0x0000000000000000       0x32 ..\..\libs\cpu\libplatform.a(sddac.o)
 .text          0x0000000000000000        0x0 ..\..\libs\cpu\libplatform.a(bt.o)
 .data          0x0000000000000000        0x0 ..\..\libs\cpu\libplatform.a(bt.o)
 .bss           0x0000000000000000        0x0 ..\..\libs\cpu\libplatform.a(bt.o)
 .com_text.bthw
                0x0000000000000000        0x4 ..\..\libs\cpu\libplatform.a(bt.o)
 .text          0x0000000000000000        0x0 ..\..\libs\cpu\libplatform.a(crc.o)
 .data          0x0000000000000000        0x0 ..\..\libs\cpu\libplatform.a(crc.o)
 .bss           0x0000000000000000        0x0 ..\..\libs\cpu\libplatform.a(crc.o)
 .text.calc_crc32
                0x0000000000000000       0x2e ..\..\libs\cpu\libplatform.a(crc.o)
 .text.calc_crc16
                0x0000000000000000       0x2a ..\..\libs\cpu\libplatform.a(crc.o)
 .com_text.crc8
                0x0000000000000000       0x28 ..\..\libs\cpu\libplatform.a(crc.o)
 .com_rodata.crc.tbl
                0x0000000000000000      0x100 ..\..\libs\cpu\libplatform.a(crc.o)
 .rodata.crc.tbl
                0x0000000000000000      0x200 ..\..\libs\cpu\libplatform.a(crc.o)
 .rodata.dfu_crc32_table
                0x0000000000000000      0x400 ..\..\libs\cpu\libplatform.a(crc.o)
 .comment       0x0000000000000000       0x13 ..\..\libs\cpu\libplatform.a(crc.o)
 .riscv.attributes
                0x0000000000000000       0x32 ..\..\libs\cpu\libplatform.a(crc.o)
 .text          0x0000000000000000      0x5ba ..\..\libs\cpu\libgcc.a(divdf3.o)
 .data          0x0000000000000000        0x0 ..\..\libs\cpu\libgcc.a(divdf3.o)
 .bss           0x0000000000000000        0x0 ..\..\libs\cpu\libgcc.a(divdf3.o)
 .rodata        0x0000000000000000       0x40 ..\..\libs\cpu\libgcc.a(divdf3.o)
 .debug_info    0x0000000000000000      0x72e ..\..\libs\cpu\libgcc.a(divdf3.o)
 .debug_abbrev  0x0000000000000000      0x173 ..\..\libs\cpu\libgcc.a(divdf3.o)
 .debug_loc     0x0000000000000000     0x1a3e ..\..\libs\cpu\libgcc.a(divdf3.o)
 .debug_aranges
                0x0000000000000000       0x20 ..\..\libs\cpu\libgcc.a(divdf3.o)
 .debug_ranges  0x0000000000000000      0x230 ..\..\libs\cpu\libgcc.a(divdf3.o)
 .debug_line    0x0000000000000000     0x111f ..\..\libs\cpu\libgcc.a(divdf3.o)
 .debug_str     0x0000000000000000      0x3ae ..\..\libs\cpu\libgcc.a(divdf3.o)
 .comment       0x0000000000000000       0x13 ..\..\libs\cpu\libgcc.a(divdf3.o)
 .debug_frame   0x0000000000000000       0x54 ..\..\libs\cpu\libgcc.a(divdf3.o)
 .riscv.attributes
                0x0000000000000000       0x26 ..\..\libs\cpu\libgcc.a(divdf3.o)
 .text          0x0000000000000000      0x49e ..\..\libs\cpu\libgcc.a(muldf3.o)
 .data          0x0000000000000000        0x0 ..\..\libs\cpu\libgcc.a(muldf3.o)
 .bss           0x0000000000000000        0x0 ..\..\libs\cpu\libgcc.a(muldf3.o)
 .rodata        0x0000000000000000       0x40 ..\..\libs\cpu\libgcc.a(muldf3.o)
 .debug_info    0x0000000000000000      0x762 ..\..\libs\cpu\libgcc.a(muldf3.o)
 .debug_abbrev  0x0000000000000000      0x185 ..\..\libs\cpu\libgcc.a(muldf3.o)
 .debug_loc     0x0000000000000000      0xf11 ..\..\libs\cpu\libgcc.a(muldf3.o)
 .debug_aranges
                0x0000000000000000       0x20 ..\..\libs\cpu\libgcc.a(muldf3.o)
 .debug_ranges  0x0000000000000000      0x290 ..\..\libs\cpu\libgcc.a(muldf3.o)
 .debug_line    0x0000000000000000      0xf06 ..\..\libs\cpu\libgcc.a(muldf3.o)
 .debug_str     0x0000000000000000      0x406 ..\..\libs\cpu\libgcc.a(muldf3.o)
 .comment       0x0000000000000000       0x13 ..\..\libs\cpu\libgcc.a(muldf3.o)
 .debug_frame   0x0000000000000000       0x54 ..\..\libs\cpu\libgcc.a(muldf3.o)
 .riscv.attributes
                0x0000000000000000       0x26 ..\..\libs\cpu\libgcc.a(muldf3.o)
 .text          0x0000000000000000       0x62 ..\..\libs\cpu\libgcc.a(fixunsdfsi.o)
 .data          0x0000000000000000        0x0 ..\..\libs\cpu\libgcc.a(fixunsdfsi.o)
 .bss           0x0000000000000000        0x0 ..\..\libs\cpu\libgcc.a(fixunsdfsi.o)
 .debug_info    0x0000000000000000      0x1d2 ..\..\libs\cpu\libgcc.a(fixunsdfsi.o)
 .debug_abbrev  0x0000000000000000      0x15e ..\..\libs\cpu\libgcc.a(fixunsdfsi.o)
 .debug_loc     0x0000000000000000       0xf4 ..\..\libs\cpu\libgcc.a(fixunsdfsi.o)
 .debug_aranges
                0x0000000000000000       0x20 ..\..\libs\cpu\libgcc.a(fixunsdfsi.o)
 .debug_ranges  0x0000000000000000       0x20 ..\..\libs\cpu\libgcc.a(fixunsdfsi.o)
 .debug_line    0x0000000000000000      0x1b4 ..\..\libs\cpu\libgcc.a(fixunsdfsi.o)
 .debug_str     0x0000000000000000      0x1f9 ..\..\libs\cpu\libgcc.a(fixunsdfsi.o)
 .comment       0x0000000000000000       0x13 ..\..\libs\cpu\libgcc.a(fixunsdfsi.o)
 .debug_frame   0x0000000000000000       0x20 ..\..\libs\cpu\libgcc.a(fixunsdfsi.o)
 .riscv.attributes
                0x0000000000000000       0x26 ..\..\libs\cpu\libgcc.a(fixunsdfsi.o)
 .text          0x0000000000000000       0x74 ..\..\libs\cpu\libgcc.a(floatsidf.o)
 .data          0x0000000000000000        0x0 ..\..\libs\cpu\libgcc.a(floatsidf.o)
 .bss           0x0000000000000000        0x0 ..\..\libs\cpu\libgcc.a(floatsidf.o)
 .debug_info    0x0000000000000000      0x29b ..\..\libs\cpu\libgcc.a(floatsidf.o)
 .debug_abbrev  0x0000000000000000      0x164 ..\..\libs\cpu\libgcc.a(floatsidf.o)
 .debug_loc     0x0000000000000000      0x240 ..\..\libs\cpu\libgcc.a(floatsidf.o)
 .debug_aranges
                0x0000000000000000       0x20 ..\..\libs\cpu\libgcc.a(floatsidf.o)
 .debug_ranges  0x0000000000000000       0xd0 ..\..\libs\cpu\libgcc.a(floatsidf.o)
 .debug_line    0x0000000000000000      0x29e ..\..\libs\cpu\libgcc.a(floatsidf.o)
 .debug_str     0x0000000000000000      0x299 ..\..\libs\cpu\libgcc.a(floatsidf.o)
 .comment       0x0000000000000000       0x13 ..\..\libs\cpu\libgcc.a(floatsidf.o)
 .debug_frame   0x0000000000000000       0x38 ..\..\libs\cpu\libgcc.a(floatsidf.o)
 .riscv.attributes
                0x0000000000000000       0x26 ..\..\libs\cpu\libgcc.a(floatsidf.o)
 .text          0x0000000000000000       0x74 ..\..\libs\cpu\libgcc.a(floatunsidf.o)
 .data          0x0000000000000000        0x0 ..\..\libs\cpu\libgcc.a(floatunsidf.o)
 .bss           0x0000000000000000        0x0 ..\..\libs\cpu\libgcc.a(floatunsidf.o)
 .debug_info    0x0000000000000000      0x28b ..\..\libs\cpu\libgcc.a(floatunsidf.o)
 .debug_abbrev  0x0000000000000000      0x175 ..\..\libs\cpu\libgcc.a(floatunsidf.o)
 .debug_loc     0x0000000000000000      0x1d5 ..\..\libs\cpu\libgcc.a(floatunsidf.o)
 .debug_aranges
                0x0000000000000000       0x20 ..\..\libs\cpu\libgcc.a(floatunsidf.o)
 .debug_ranges  0x0000000000000000       0xc0 ..\..\libs\cpu\libgcc.a(floatunsidf.o)
 .debug_line    0x0000000000000000      0x37e ..\..\libs\cpu\libgcc.a(floatunsidf.o)
 .debug_str     0x0000000000000000      0x296 ..\..\libs\cpu\libgcc.a(floatunsidf.o)
 .comment       0x0000000000000000       0x13 ..\..\libs\cpu\libgcc.a(floatunsidf.o)
 .debug_frame   0x0000000000000000       0x44 ..\..\libs\cpu\libgcc.a(floatunsidf.o)
 .riscv.attributes
                0x0000000000000000       0x26 ..\..\libs\cpu\libgcc.a(floatunsidf.o)
 .text          0x0000000000000000       0x76 ..\..\libs\cpu\libgcc.a(_clzsi2.o)
 .data          0x0000000000000000        0x0 ..\..\libs\cpu\libgcc.a(_clzsi2.o)
 .bss           0x0000000000000000        0x0 ..\..\libs\cpu\libgcc.a(_clzsi2.o)
 .debug_info    0x0000000000000000      0x132 ..\..\libs\cpu\libgcc.a(_clzsi2.o)
 .debug_abbrev  0x0000000000000000       0xb9 ..\..\libs\cpu\libgcc.a(_clzsi2.o)
 .debug_loc     0x0000000000000000       0xd8 ..\..\libs\cpu\libgcc.a(_clzsi2.o)
 .debug_aranges
                0x0000000000000000       0x20 ..\..\libs\cpu\libgcc.a(_clzsi2.o)
 .debug_ranges  0x0000000000000000       0x30 ..\..\libs\cpu\libgcc.a(_clzsi2.o)
 .debug_line    0x0000000000000000      0x14d ..\..\libs\cpu\libgcc.a(_clzsi2.o)
 .debug_str     0x0000000000000000      0x1da ..\..\libs\cpu\libgcc.a(_clzsi2.o)
 .comment       0x0000000000000000       0x13 ..\..\libs\cpu\libgcc.a(_clzsi2.o)
 .debug_frame   0x0000000000000000       0x20 ..\..\libs\cpu\libgcc.a(_clzsi2.o)
 .riscv.attributes
                0x0000000000000000       0x26 ..\..\libs\cpu\libgcc.a(_clzsi2.o)
 .text          0x0000000000000000        0x0 ..\..\libs\cpu\libgcc.a(_clz.o)
 .data          0x0000000000000000        0x0 ..\..\libs\cpu\libgcc.a(_clz.o)
 .bss           0x0000000000000000        0x0 ..\..\libs\cpu\libgcc.a(_clz.o)
 .rodata        0x0000000000000000      0x100 ..\..\libs\cpu\libgcc.a(_clz.o)
 .debug_info    0x0000000000000000       0xc9 ..\..\libs\cpu\libgcc.a(_clz.o)
 .debug_abbrev  0x0000000000000000       0x70 ..\..\libs\cpu\libgcc.a(_clz.o)
 .debug_aranges
                0x0000000000000000       0x18 ..\..\libs\cpu\libgcc.a(_clz.o)
 .debug_line    0x0000000000000000       0x5d ..\..\libs\cpu\libgcc.a(_clz.o)
 .debug_str     0x0000000000000000      0x1bd ..\..\libs\cpu\libgcc.a(_clz.o)
 .comment       0x0000000000000000       0x13 ..\..\libs\cpu\libgcc.a(_clz.o)
 .riscv.attributes
                0x0000000000000000       0x26 ..\..\libs\cpu\libgcc.a(_clz.o)
 .data          0x0000000000000000        0x0 ..\..\libs\ble\libbtstack_all_roles.a(txpkt.o)
 .bss           0x0000000000000000        0x0 ..\..\libs\ble\libbtstack_all_roles.a(txpkt.o)
 .com_text.txpkt.full_check
                0x0000000000000000       0x1c ..\..\libs\ble\libbtstack_all_roles.a(txpkt.o)
 .com_text.txpkt.avail_check
                0x0000000000000000       0x16 ..\..\libs\ble\libbtstack_all_roles.a(txpkt.o)
 .com_text.txpkt.server_kick
                0x0000000000000000        0xc ..\..\libs\ble\libbtstack_all_roles.a(txpkt.o)
 .com_text.txpkt.client_kick
                0x0000000000000000        0xc ..\..\libs\ble\libbtstack_all_roles.a(txpkt.o)
 .data          0x0000000000000000        0x0 ..\..\libs\ble\libbtstack_all_roles.a(sm.o)
 .text.sm.cmac  0x0000000000000000       0x82 ..\..\libs\ble\libbtstack_all_roles.a(sm.o)
 .text.sm.auth_decline
                0x0000000000000000       0x38 ..\..\libs\ble\libbtstack_all_roles.a(sm.o)
 .text.sm.auth_grant
                0x0000000000000000       0x38 ..\..\libs\ble\libbtstack_all_roles.a(sm.o)
 .text.sm.bonding_decline
                0x0000000000000000       0x60 ..\..\libs\ble\libbtstack_all_roles.a(sm.o)
 .text.sm.passkey.set
                0x0000000000000000       0x3e ..\..\libs\ble\libbtstack_all_roles.a(sm.o)
 .text.sm.nc_exch
                0x0000000000000000        0x8 ..\..\libs\ble\libbtstack_all_roles.a(sm.o)
 .text.sm.identity_resolving_state
                0x0000000000000000       0x20 ..\..\libs\ble\libbtstack_all_roles.a(sm.o)
 .text.sm.irk_get
                0x0000000000000000        0xa ..\..\libs\ble\libbtstack_all_roles.a(sm.o)
 .text.sm.delete_bonding
                0x0000000000000000       0x6e ..\..\libs\ble\libbtstack_all_roles.a(sm.o)
 .data          0x0000000000000000        0x0 ..\..\libs\ble\libbtstack_all_roles.a(le_device_db_memory.o)
 .bss           0x0000000000000000        0x0 ..\..\libs\ble\libbtstack_all_roles.a(le_device_db_memory.o)
 .text.le.db.get
                0x0000000000000000       0x34 ..\..\libs\ble\libbtstack_all_roles.a(le_device_db_memory.o)
 .text.le.db.set
                0x0000000000000000      0x192 ..\..\libs\ble\libbtstack_all_roles.a(le_device_db_memory.o)
 .text.le.db.remove_all
                0x0000000000000000       0x58 ..\..\libs\ble\libbtstack_all_roles.a(le_device_db_memory.o)
 .text.le.db.dump
                0x0000000000000000       0x62 ..\..\libs\ble\libbtstack_all_roles.a(le_device_db_memory.o)
 .text.le.db.get_index
                0x0000000000000000       0x1c ..\..\libs\ble\libbtstack_all_roles.a(le_device_db_memory.o)
 .data          0x0000000000000000        0x0 ..\..\libs\ble\libbtstack_all_roles.a(gatt_server.o)
 .bss           0x0000000000000000        0x0 ..\..\libs\ble\libbtstack_all_roles.a(gatt_server.o)
 .text.stack.send.ntf_kick
                0x0000000000000000        0x8 ..\..\libs\ble\libbtstack_all_roles.a(gatt_server.o)
 .data          0x0000000000000000        0x0 ..\..\libs\ble\libbtstack_all_roles.a(gatt_client.o)
 .bss           0x0000000000000000        0x0 ..\..\libs\ble\libbtstack_all_roles.a(gatt_client.o)
 .text.client.set.sm_level
                0x0000000000000000        0xa ..\..\libs\ble\libbtstack_all_roles.a(gatt_client.o)
 .text.client.stop_listening
                0x0000000000000000       0x12 ..\..\libs\ble\libbtstack_all_roles.a(gatt_client.o)
 .text.client.deserialize_characteristic_descriptor
                0x0000000000000000       0x4e ..\..\libs\ble\libbtstack_all_roles.a(gatt_client.o)
 .text.client.get_character_uuid16
                0x0000000000000000       0x22 ..\..\libs\ble\libbtstack_all_roles.a(gatt_client.o)
 .text.client.get_character_uuid128
                0x0000000000000000       0x42 ..\..\libs\ble\libbtstack_all_roles.a(gatt_client.o)
 .text.client.write_cmd
                0x0000000000000000       0x24 ..\..\libs\ble\libbtstack_all_roles.a(gatt_client.o)
 .text.client.read_req
                0x0000000000000000       0x22 ..\..\libs\ble\libbtstack_all_roles.a(gatt_client.o)
 .text.client.read_blob
                0x0000000000000000       0x22 ..\..\libs\ble\libbtstack_all_roles.a(gatt_client.o)
 .text.client.read_report_ref
                0x0000000000000000       0x22 ..\..\libs\ble\libbtstack_all_roles.a(gatt_client.o)
 .text.client.discover_secondary_services
                0x0000000000000000       0x4c ..\..\libs\ble\libbtstack_all_roles.a(gatt_client.o)
 .text.client.find_services_uuid16
                0x0000000000000000       0x6a ..\..\libs\ble\libbtstack_all_roles.a(gatt_client.o)
 .text.client.find_services_uuid128
                0x0000000000000000       0x6e ..\..\libs\ble\libbtstack_all_roles.a(gatt_client.o)
 .text.client.find_included_services
                0x0000000000000000       0x4e ..\..\libs\ble\libbtstack_all_roles.a(gatt_client.o)
 .text.client.find_character_uuid16
                0x0000000000000000       0x90 ..\..\libs\ble\libbtstack_all_roles.a(gatt_client.o)
 .text.client.find_character_uuid128
                0x0000000000000000       0x92 ..\..\libs\ble\libbtstack_all_roles.a(gatt_client.o)
 .text.client.discover_characteristic_descriptors
                0x0000000000000000       0x5e ..\..\libs\ble\libbtstack_all_roles.a(gatt_client.o)
 .text.client.read_value
                0x0000000000000000        0xc ..\..\libs\ble\libbtstack_all_roles.a(gatt_client.o)
 .text.client.read_value_uuid16
                0x0000000000000000       0x66 ..\..\libs\ble\libbtstack_all_roles.a(gatt_client.o)
 .text.client.read_value_uuid128
                0x0000000000000000       0x68 ..\..\libs\ble\libbtstack_all_roles.a(gatt_client.o)
 .text.client.read_long_value
                0x0000000000000000       0x16 ..\..\libs\ble\libbtstack_all_roles.a(gatt_client.o)
 .text.client.read_multiple
                0x0000000000000000       0x48 ..\..\libs\ble\libbtstack_all_roles.a(gatt_client.o)
 .text.client.write_long_value
                0x0000000000000000       0x62 ..\..\libs\ble\libbtstack_all_roles.a(gatt_client.o)
 .text.client.reliable_write_long
                0x0000000000000000       0x52 ..\..\libs\ble\libbtstack_all_roles.a(gatt_client.o)
 .text.client.read_characteristic
                0x0000000000000000       0x50 ..\..\libs\ble\libbtstack_all_roles.a(gatt_client.o)
 .text.client.read_long_characteristic_descriptor
                0x0000000000000000       0x62 ..\..\libs\ble\libbtstack_all_roles.a(gatt_client.o)
 .text.client.write_character_desc
                0x0000000000000000       0x60 ..\..\libs\ble\libbtstack_all_roles.a(gatt_client.o)
 .text.client.write_long_character_desc
                0x0000000000000000       0x70 ..\..\libs\ble\libbtstack_all_roles.a(gatt_client.o)
 .text.client.prepare_write
                0x0000000000000000       0x56 ..\..\libs\ble\libbtstack_all_roles.a(gatt_client.o)
 .text.client.execute_write
                0x0000000000000000       0x3c ..\..\libs\ble\libbtstack_all_roles.a(gatt_client.o)
 .text.client.cancel_write
                0x0000000000000000       0x3c ..\..\libs\ble\libbtstack_all_roles.a(gatt_client.o)
 .ble_buf.read  0x0000000000000000        0x6 ..\..\libs\ble\libbtstack_all_roles.a(gatt_client.o)
 .data          0x0000000000000000        0x0 ..\..\libs\ble\libbtstack_all_roles.a(att_server.o)
 .bss           0x0000000000000000        0x0 ..\..\libs\ble\libbtstack_all_roles.a(att_server.o)
 .data          0x0000000000000000        0x0 ..\..\libs\ble\libbtstack_all_roles.a(att_dispatch.o)
 .bss           0x0000000000000000        0x0 ..\..\libs\ble\libbtstack_all_roles.a(att_dispatch.o)
 .data          0x0000000000000000        0x0 ..\..\libs\ble\libbtstack_all_roles.a(att_db.o)
 .bss           0x0000000000000000        0x0 ..\..\libs\ble\libbtstack_all_roles.a(att_db.o)
 .text.att.dump
                0x0000000000000000       0x5c ..\..\libs\ble\libbtstack_all_roles.a(att_db.o)
 .text.gatt.get_client_config
                0x0000000000000000      0x122 ..\..\libs\ble\libbtstack_all_roles.a(att_db.o)
 .data          0x0000000000000000        0x0 ..\..\libs\ble\libbtstack_all_roles.a(btstack_api.o)
 .bss           0x0000000000000000        0xe ..\..\libs\ble\libbtstack_all_roles.a(btstack_api.o)
 .text          0x0000000000000000       0x28 ..\..\libs\ble\libbtstack_all_roles.a(bt_api.o)
 .data          0x0000000000000000        0x0 ..\..\libs\ble\libbtstack_all_roles.a(bt_api.o)
 .bss           0x0000000000000000        0x0 ..\..\libs\ble\libbtstack_all_roles.a(bt_api.o)
 .com_text.bt.timer
                0x0000000000000000       0x10 ..\..\libs\ble\libbtstack_all_roles.a(bt_api.o)
 .text          0x0000000000000000        0x4 ..\..\libs\ble\libbtstack_all_roles.a(ble_api.o)
 .data          0x0000000000000000        0x0 ..\..\libs\ble\libbtstack_all_roles.a(ble_api.o)
 .bss           0x0000000000000000        0x0 ..\..\libs\ble\libbtstack_all_roles.a(ble_api.o)
 .text.ble.api.max_mtu
                0x0000000000000000       0x2e ..\..\libs\ble\libbtstack_all_roles.a(ble_api.o)
 .text.ble.api.ext_adv_dis
                0x0000000000000000        0x2 ..\..\libs\ble\libbtstack_all_roles.a(ble_api.o)
 .text.ble.api.ext_adv_en
                0x0000000000000000        0x2 ..\..\libs\ble\libbtstack_all_roles.a(ble_api.o)
 .text.ble.api.discon
                0x0000000000000000        0xe ..\..\libs\ble\libbtstack_all_roles.a(ble_api.o)
 .text.ble.api.adv_data.set
                0x0000000000000000       0x44 ..\..\libs\ble\libbtstack_all_roles.a(ble_api.o)
 .text.ble.api.scan
                0x0000000000000000       0x44 ..\..\libs\ble\libbtstack_all_roles.a(ble_api.o)
 .text.ble.api.conn.update2
                0x0000000000000000        0xa ..\..\libs\ble\libbtstack_all_roles.a(ble_api.o)
 .text.ble.api.conn.ll_update
                0x0000000000000000        0xa ..\..\libs\ble\libbtstack_all_roles.a(ble_api.o)
 .text.ble.adv_param.get
                0x0000000000000000        0xa ..\..\libs\ble\libbtstack_all_roles.a(ble_api.o)
 .text.ble.api.ext_adv_param.set
                0x0000000000000000        0x4 ..\..\libs\ble\libbtstack_all_roles.a(ble_api.o)
 .text.ble.api.ext_scan.set
                0x0000000000000000        0x4 ..\..\libs\ble\libbtstack_all_roles.a(ble_api.o)
 .text.ble.api.ext_conn_do
                0x0000000000000000        0x4 ..\..\libs\ble\libbtstack_all_roles.a(ble_api.o)
 .text.ble.api.conn_cancel_do
                0x0000000000000000        0xa ..\..\libs\ble\libbtstack_all_roles.a(ble_api.o)
 .text.ble.api.rpa
                0x0000000000000000        0x2 ..\..\libs\ble\libbtstack_all_roles.a(ble_api.o)
 .text.ble.api.rpa_en
                0x0000000000000000        0x2 ..\..\libs\ble\libbtstack_all_roles.a(ble_api.o)
 .text.ble.api.rpa_add
                0x0000000000000000        0x2 ..\..\libs\ble\libbtstack_all_roles.a(ble_api.o)
 .text.ble.api.rpa_dev
                0x0000000000000000        0x2 ..\..\libs\ble\libbtstack_all_roles.a(ble_api.o)
 .text.ble.api.wlist_add
                0x0000000000000000        0x2 ..\..\libs\ble\libbtstack_all_roles.a(ble_api.o)
 .text.ble.api.wlist_dev
                0x0000000000000000        0x2 ..\..\libs\ble\libbtstack_all_roles.a(ble_api.o)
 .text.ble.api.wlist
                0x0000000000000000        0x4 ..\..\libs\ble\libbtstack_all_roles.a(ble_api.o)
 .text.ble.api.sm.passkey
                0x0000000000000000       0x2c ..\..\libs\ble\libbtstack_all_roles.a(ble_api.o)
 .text.ble.api.sm_req
                0x0000000000000000        0xe ..\..\libs\ble\libbtstack_all_roles.a(ble_api.o)
 .text.ble.bond.delete_addr
                0x0000000000000000        0x8 ..\..\libs\ble\libbtstack_all_roles.a(ble_api.o)
 .text.ble.bond.delete_index
                0x0000000000000000        0x8 ..\..\libs\ble\libbtstack_all_roles.a(ble_api.o)
 .text.ble.bond.delete_all
                0x0000000000000000        0x8 ..\..\libs\ble\libbtstack_all_roles.a(ble_api.o)
 .text.ble.bond.get_cnt
                0x0000000000000000       0x1c ..\..\libs\ble\libbtstack_all_roles.a(ble_api.o)
 .text.ble.bond.get_info
                0x0000000000000000       0x10 ..\..\libs\ble\libbtstack_all_roles.a(ble_api.o)
 .text.ble.api.get_rssi
                0x0000000000000000        0x8 ..\..\libs\ble\libbtstack_all_roles.a(ble_api.o)
 .text.ble.set_static_addr
                0x0000000000000000       0x2e ..\..\libs\ble\libbtstack_all_roles.a(ble_api.o)
 .text.ble.addr_update
                0x0000000000000000        0xa ..\..\libs\ble\libbtstack_all_roles.a(ble_api.o)
 .text.ble.addr_get
                0x0000000000000000        0xc ..\..\libs\ble\libbtstack_all_roles.a(ble_api.o)
 .text.ble_fcc.cfg
                0x0000000000000000       0x32 ..\..\libs\ble\libbtstack_all_roles.a(ble_api.o)
 .data          0x0000000000000000        0x0 ..\..\libs\ble\libbtstack_all_roles.a(rf.o)
 .bss           0x0000000000000000        0x0 ..\..\libs\ble\libbtstack_all_roles.a(rf.o)
 .com_text.bb.rf.isr
                0x0000000000000000       0x14 ..\..\libs\ble\libbtstack_all_roles.a(rf.o)
 .data          0x0000000000000000        0x0 ..\..\libs\ble\libbtstack_all_roles.a(ble_con.o)
 .bss           0x0000000000000000        0x0 ..\..\libs\ble\libbtstack_all_roles.a(ble_con.o)
 .com_rodata.bb.tbl
                0x0000000000000000       0x10 ..\..\libs\ble\libbtstack_all_roles.a(ble_con.o)
 .text          0x0000000000000000       0x3e ..\..\libs\ble\libbtstack_all_roles.a(bb_utils.o)
 .data          0x0000000000000000        0x0 ..\..\libs\ble\libbtstack_all_roles.a(bb_utils.o)
 .bss           0x0000000000000000        0x0 ..\..\libs\ble\libbtstack_all_roles.a(bb_utils.o)
 .srodata       0x0000000000000000        0x5 ..\..\libs\ble\libbtstack_all_roles.a(bb_utils.o)
 .data          0x0000000000000000        0x0 ..\..\libs\ble\libbtstack_all_roles.a(bb_int.o)
 .bss           0x0000000000000000        0x0 ..\..\libs\ble\libbtstack_all_roles.a(bb_int.o)
 .text.bb.timer.init
                0x0000000000000000       0x34 ..\..\libs\ble\libbtstack_all_roles.a(bb_int.o)
 .text.bb.timer.start
                0x0000000000000000       0x7a ..\..\libs\ble\libbtstack_all_roles.a(bb_int.o)
 .text.bb.timer.stop
                0x0000000000000000       0x5e ..\..\libs\ble\libbtstack_all_roles.a(bb_int.o)
 .text.bb.timer.acquire
                0x0000000000000000       0x7c ..\..\libs\ble\libbtstack_all_roles.a(bb_int.o)
 .text.bb.timer.release
                0x0000000000000000       0x3c ..\..\libs\ble\libbtstack_all_roles.a(bb_int.o)
 .com_text.bb.timer.query
                0x0000000000000000       0xac ..\..\libs\ble\libbtstack_all_roles.a(bb_int.o)
 .com_text.bb.timer.modify
                0x0000000000000000       0x9e ..\..\libs\ble\libbtstack_all_roles.a(bb_int.o)
 .com_text.bb.hs_get
                0x0000000000000000       0x22 ..\..\libs\ble\libbtstack_all_roles.a(bb_int.o)
 .data          0x0000000000000000        0x0 ..\..\libs\ble\libbtstack_all_roles.a(bb.o)
 .bss           0x0000000000000000        0x0 ..\..\libs\ble\libbtstack_all_roles.a(bb.o)
 .com_text.bb.isr
                0x0000000000000000       0x16 ..\..\libs\ble\libbtstack_all_roles.a(bb.o)
 .text          0x0000000000000000        0x0 ..\..\libs\ble\libbtstack_all_roles.a(platform.o)
 .data          0x0000000000000000        0x0 ..\..\libs\ble\libbtstack_all_roles.a(platform.o)
 .bss           0x0000000000000000        0x0 ..\..\libs\ble\libbtstack_all_roles.a(platform.o)
 .com_text.cpu.sfr
                0x0000000000000000       0x3c ..\..\libs\ble\libbtstack_all_roles.a(platform.o)
 .data          0x0000000000000000        0x0 ..\..\libs\ble\libbtstack_all_roles.a(extern_ble.o)
 .bss           0x0000000000000000        0x0 ..\..\libs\ble\libbtstack_all_roles.a(extern_ble.o)
 .sbss          0x0000000000000000        0x3 ..\..\libs\ble\libbtstack_all_roles.a(extern_ble.o)
 .srodata       0x0000000000000000        0x1 ..\..\libs\ble\libbtstack_all_roles.a(extern_ble.o)
 .text          0x0000000000000000        0x0 ..\..\libs\ble\libbtstack_all_roles.a(extern.o)
 .data          0x0000000000000000        0x0 ..\..\libs\ble\libbtstack_all_roles.a(extern.o)
 .bss           0x0000000000000000        0x0 ..\..\libs\ble\libbtstack_all_roles.a(extern.o)
 .data          0x0000000000000000        0x0 ..\..\libs\ble\libbtstack_all_roles.a(l2cap.o)
 .bss           0x0000000000000000        0x0 ..\..\libs\ble\libbtstack_all_roles.a(l2cap.o)
 .text.l2cap.mtu_max
                0x0000000000000000        0x6 ..\..\libs\ble\libbtstack_all_roles.a(l2cap.o)
 .text.l2cap.mtu_set
                0x0000000000000000       0x12 ..\..\libs\ble\libbtstack_all_roles.a(l2cap.o)
 .text          0x0000000000000000       0x18 ..\..\libs\ble\libbtstack_all_roles.a(hci_dump.o)
 .data          0x0000000000000000        0xc ..\..\libs\ble\libbtstack_all_roles.a(hci_dump.o)
 .bss           0x0000000000000000        0x0 ..\..\libs\ble\libbtstack_all_roles.a(hci_dump.o)
 .rodata.str1.4
                0x0000000000000000       0x12 ..\..\libs\ble\libbtstack_all_roles.a(hci_dump.o)
 .text.stack.util
                0x0000000000000000       0x82 ..\..\libs\ble\libbtstack_all_roles.a(hci_dump.o)
 .text          0x0000000000000000        0x0 ..\..\libs\ble\libbtstack_all_roles.a(hci_cmd.o)
 .data          0x0000000000000000        0x0 ..\..\libs\ble\libbtstack_all_roles.a(hci_cmd.o)
 .bss           0x0000000000000000        0x0 ..\..\libs\ble\libbtstack_all_roles.a(hci_cmd.o)
 .com_rodata.btstakc.hci
                0x0000000000000000        0x8 ..\..\libs\ble\libbtstack_all_roles.a(hci_cmd.o)
 .rodata.stack.hci_send.ch
                0x0000000000000000        0x8 ..\..\libs\ble\libbtstack_all_roles.a(hci_cmd.o)
 .rodata.stack.hci_send.chm
                0x0000000000000000        0x8 ..\..\libs\ble\libbtstack_all_roles.a(hci_cmd.o)
 .rodata.stack.hci_send.featrue
                0x0000000000000000        0x8 ..\..\libs\ble\libbtstack_all_roles.a(hci_cmd.o)
 .rodata.stack.hci_send.len
                0x0000000000000000       0x10 ..\..\libs\ble\libbtstack_all_roles.a(hci_cmd.o)
 .rodata.stack.hci_send.read_sugg_len
                0x0000000000000000        0x8 ..\..\libs\ble\libbtstack_all_roles.a(hci_cmd.o)
 .rodata.stack.hci_send.rx_test
                0x0000000000000000        0x8 ..\..\libs\ble\libbtstack_all_roles.a(hci_cmd.o)
 .rodata.stack.hci_send.set_len
                0x0000000000000000        0x8 ..\..\libs\ble\libbtstack_all_roles.a(hci_cmd.o)
 .rodata.stack.hci_send.sup_sta
                0x0000000000000000        0x8 ..\..\libs\ble\libbtstack_all_roles.a(hci_cmd.o)
 .rodata.stack.hci_send.test_end
                0x0000000000000000        0x8 ..\..\libs\ble\libbtstack_all_roles.a(hci_cmd.o)
 .rodata.stack.hci_send.tx_test
                0x0000000000000000        0x8 ..\..\libs\ble\libbtstack_all_roles.a(hci_cmd.o)
 .srodata       0x0000000000000000        0x8 ..\..\libs\ble\libbtstack_all_roles.a(hci_cmd.o)
 .data          0x0000000000000000        0x0 ..\..\libs\ble\libbtstack_all_roles.a(hci.o)
 .bss           0x0000000000000000        0x0 ..\..\libs\ble\libbtstack_all_roles.a(hci.o)
 .text.stack.hci.conn_param_set
                0x0000000000000000       0x18 ..\..\libs\ble\libbtstack_all_roles.a(hci.o)
 .data          0x0000000000000000        0x0 ..\..\libs\ble\libbtstack_all_roles.a(btstack_util.o)
 .bss           0x0000000000000000        0x0 ..\..\libs\ble\libbtstack_all_roles.a(btstack_util.o)
 .data          0x0000000000000000        0x0 ..\..\libs\ble\libbtstack_all_roles.a(btstack_run_loop.o)
 .bss           0x0000000000000000        0x0 ..\..\libs\ble\libbtstack_all_roles.a(btstack_run_loop.o)
 .com_text.stack.api
                0x0000000000000000        0xc ..\..\libs\ble\libbtstack_all_roles.a(btstack_run_loop.o)
 .data          0x0000000000000000        0x0 ..\..\libs\ble\libbtstack_all_roles.a(btstack_memory.o)
 .text.stack.memory
                0x0000000000000000       0x12 ..\..\libs\ble\libbtstack_all_roles.a(btstack_memory.o)
 .text          0x0000000000000000        0x4 ..\..\libs\ble\libbtstack_all_roles.a(btstack_linked_list.o)
 .data          0x0000000000000000        0x0 ..\..\libs\ble\libbtstack_all_roles.a(btstack_linked_list.o)
 .bss           0x0000000000000000        0x0 ..\..\libs\ble\libbtstack_all_roles.a(btstack_linked_list.o)
 .text          0x0000000000000000      0x274 ..\..\libs\ble\libbtstack_all_roles.a(ad_parser.o)
 .data          0x0000000000000000        0x0 ..\..\libs\ble\libbtstack_all_roles.a(ad_parser.o)
 .bss           0x0000000000000000        0x0 ..\..\libs\ble\libbtstack_all_roles.a(ad_parser.o)
 .data          0x0000000000000000        0x0 ..\..\libs\ble\libbtstack_all_roles.a(hci_transport_hcic.o)
 .bss           0x0000000000000000        0x0 ..\..\libs\ble\libbtstack_all_roles.a(hci_transport_hcic.o)
 .text          0x0000000000000000       0x48 ..\..\libs\ble\libbtstack_all_roles.a(hci_transport_h3_controller.o)
 .data          0x0000000000000000        0x0 ..\..\libs\ble\libbtstack_all_roles.a(hci_transport_h3_controller.o)
 .bss           0x0000000000000000       0x20 ..\..\libs\ble\libbtstack_all_roles.a(hci_transport_h3_controller.o)
 .text.stack.h3c
                0x0000000000000000      0x1ac ..\..\libs\ble\libbtstack_all_roles.a(hci_transport_h3_controller.o)
 .com_text.stack.h3c
                0x0000000000000000       0x48 ..\..\libs\ble\libbtstack_all_roles.a(hci_transport_h3_controller.o)
 .rodata.str1.4
                0x0000000000000000       0x16 ..\..\libs\ble\libbtstack_all_roles.a(hci_transport_h3_controller.o)
 .com_text.stack.util
                0x0000000000000000      0x12e ..\..\libs\ble\libbtstack_all_roles.a(hci_transport_h3_controller.o)
 .text.btstack.hci.h3c.init
                0x0000000000000000       0x12 ..\..\libs\ble\libbtstack_all_roles.a(hci_transport_h3_controller.o)
 .rodata        0x0000000000000000       0x20 ..\..\libs\ble\libbtstack_all_roles.a(hci_transport_h3_controller.o)
 .com_rodata.stack.h3
                0x0000000000000000        0x2 ..\..\libs\ble\libbtstack_all_roles.a(hci_transport_h3_controller.o)
 .hci.h3.huart  0x0000000000000000      0x408 ..\..\libs\ble\libbtstack_all_roles.a(hci_transport_h3_controller.o)
 .sbss          0x0000000000000000       0x1c ..\..\libs\ble\libbtstack_all_roles.a(hci_transport_h3_controller.o)
 .data          0x0000000000000000        0x0 ..\..\libs\ble\libbtstack_all_roles.a(hci_transport_dummy.o)
 .bss           0x0000000000000000        0x0 ..\..\libs\ble\libbtstack_all_roles.a(hci_transport_dummy.o)
 .data          0x0000000000000000        0x0 ..\..\libs\ble\libbtstack_all_roles.a(btstack_main.o)
 .bss           0x0000000000000000        0x0 ..\..\libs\ble\libbtstack_all_roles.a(btstack_main.o)
 .data          0x0000000000000000        0x0 ..\..\libs\ble\libbtstack_all_roles.a(btstack_hal.o)
 .bss           0x0000000000000000        0x0 ..\..\libs\ble\libbtstack_all_roles.a(btstack_hal.o)
 .com_text.stack.uart_isr
                0x0000000000000000       0x6c ..\..\libs\ble\libbtstack_all_roles.a(btstack_hal.o)
 .text.stack.hal
                0x0000000000000000       0xa4 ..\..\libs\ble\libbtstack_all_roles.a(btstack_hal.o)
 .com_text.stack.util
                0x0000000000000000       0x12 ..\..\libs\ble\libbtstack_all_roles.a(btstack_hal.o)
 .sbss          0x0000000000000000        0x8 ..\..\libs\ble\libbtstack_all_roles.a(btstack_hal.o)
 .data          0x0000000000000000        0x0 ..\..\libs\ble\libbtstack_all_roles.a(nanos.o)
 .bss           0x0000000000000000        0x0 ..\..\libs\ble\libbtstack_all_roles.a(nanos.o)
 .com_text.md.nanos.ms
                0x0000000000000000       0x3c ..\..\libs\ble\libbtstack_all_roles.a(nanos.o)
 .data          0x0000000000000000        0x0 ..\..\libs\ble\libbtstack_all_roles.a(bb_sche.o)
 .data          0x0000000000000000        0x0 ..\..\libs\ble\libbtstack_all_roles.a(patch.o)
 .bss           0x0000000000000000        0x0 ..\..\libs\ble\libbtstack_all_roles.a(patch.o)
 .text          0x0000000000000000        0x0 ..\..\libs\ble\libbtstack_all_roles.a(bb_dbg.o)
 .data          0x0000000000000000        0x0 ..\..\libs\ble\libbtstack_all_roles.a(bb_dbg.o)
 .bss           0x0000000000000000        0x0 ..\..\libs\ble\libbtstack_all_roles.a(bb_dbg.o)
 .com_text.spi_init
                0x0000000000000000       0x6c ..\..\libs\ble\libbtstack_all_roles.a(bb_dbg.o)
 .com_text.bb.putc
                0x0000000000000000       0x64 ..\..\libs\ble\libbtstack_all_roles.a(bb_dbg.o)
 .data          0x0000000000000000        0x0 ..\..\libs\ble\libbtstack_all_roles.a(bb_clk.o)
 .bss           0x0000000000000000        0x0 ..\..\libs\ble\libbtstack_all_roles.a(bb_clk.o)
 .text          0x0000000000000000        0x0 ..\..\libs\ble\libbtstack_all_roles.a(aes.o)
 .data          0x0000000000000000        0x0 ..\..\libs\ble\libbtstack_all_roles.a(aes.o)
 .data          0x0000000000000000        0x0 ..\..\libs\ble\libbtstack_all_roles.a(extern.o)
 .bss           0x0000000000000000        0x0 ..\..\libs\ble\libbtstack_all_roles.a(extern.o)
 .text.bsp.param
                0x0000000000000000        0x2 ..\..\libs\ble\libbtstack_all_roles.a(extern.o)
 .com_sleep.sleep
                0x0000000000000000        0x2 ..\..\libs\ble\libbtstack_all_roles.a(extern.o)
 .com_text.ble.phy
                0x0000000000000000        0x4 ..\..\libs\ble\libbtstack_all_roles.a(extern.o)
 .data          0x0000000000000000        0x0 ..\..\libs\ble\libbtstack_all_roles.a(vs.o)
 .bss           0x0000000000000000        0x0 ..\..\libs\ble\libbtstack_all_roles.a(vs.o)
 .data          0x0000000000000000        0x0 ..\..\libs\ble\libbtstack_all_roles.a(rf_xbox.o)
 .bss           0x0000000000000000        0x0 ..\..\libs\ble\libbtstack_all_roles.a(rf_xbox.o)
 .text.rf.tx_pwr.set
                0x0000000000000000       0xea ..\..\libs\ble\libbtstack_all_roles.a(rf_xbox.o)
 .text.bb.phy.rx
                0x0000000000000000       0x3e ..\..\libs\ble\libbtstack_all_roles.a(rf_xbox.o)
 .text.rf.vddvco.set
                0x0000000000000000       0x18 ..\..\libs\ble\libbtstack_all_roles.a(rf_xbox.o)
 .text.rf.vddvco.get
                0x0000000000000000        0xa ..\..\libs\ble\libbtstack_all_roles.a(rf_xbox.o)
 .text.rf.pll.set
                0x0000000000000000       0x12 ..\..\libs\ble\libbtstack_all_roles.a(rf_xbox.o)
 .text.rf.tx_pwr.set_2
                0x0000000000000000        0x8 ..\..\libs\ble\libbtstack_all_roles.a(rf_xbox.o)
 .data          0x0000000000000000        0x0 ..\..\libs\ble\libbtstack_all_roles.a(complex.o)
 .bss           0x0000000000000000        0x0 ..\..\libs\ble\libbtstack_all_roles.a(complex.o)
 .data          0x0000000000000000        0x0 ..\..\libs\ble\libbtstack_all_roles.a(ble_hook.o)
 .bss           0x0000000000000000        0x0 ..\..\libs\ble\libbtstack_all_roles.a(ble_hook.o)
 .data          0x0000000000000000        0x0 ..\..\libs\ble\libbtstack_all_roles.a(hct_tl.o)
 .data          0x0000000000000000        0x0 ..\..\libs\ble\libbtstack_all_roles.a(hct_msg.o)
 .bss           0x0000000000000000        0x0 ..\..\libs\ble\libbtstack_all_roles.a(hct_msg.o)
 .data          0x0000000000000000        0x0 ..\..\libs\ble\libbtstack_all_roles.a(hct.o)
 .bss           0x0000000000000000        0x0 ..\..\libs\ble\libbtstack_all_roles.a(hct.o)
 .data          0x0000000000000000        0x0 ..\..\libs\ble\libbtstack_all_roles.a(mgr_hci.o)
 .bss           0x0000000000000000        0x0 ..\..\libs\ble\libbtstack_all_roles.a(mgr_hci.o)
 .data          0x0000000000000000        0x0 ..\..\libs\ble\libbtstack_all_roles.a(mgr.o)
 .bss           0x0000000000000000        0x0 ..\..\libs\ble\libbtstack_all_roles.a(mgr.o)
 .data          0x0000000000000000        0x0 ..\..\libs\ble\libbtstack_all_roles.a(ll_scan.o)
 .bss           0x0000000000000000        0x0 ..\..\libs\ble\libbtstack_all_roles.a(ll_scan.o)
 .data          0x0000000000000000        0x0 ..\..\libs\ble\libbtstack_all_roles.a(ll_adv.o)
 .bss           0x0000000000000000        0x0 ..\..\libs\ble\libbtstack_all_roles.a(ll_adv.o)
 .data          0x0000000000000000        0x0 ..\..\libs\ble\libbtstack_all_roles.a(ll_tbox_freq_cal.o)
 .data          0x0000000000000000        0x0 ..\..\libs\ble\libbtstack_all_roles.a(ll_con_upd.o)
 .bss           0x0000000000000000        0x0 ..\..\libs\ble\libbtstack_all_roles.a(ll_con_upd.o)
 .data          0x0000000000000000        0x0 ..\..\libs\ble\libbtstack_all_roles.a(ll_cntl.o)
 .bss           0x0000000000000000        0x0 ..\..\libs\ble\libbtstack_all_roles.a(ll_cntl.o)
 .text          0x0000000000000000        0x0 ..\..\libs\ble\libbtstack_all_roles.a(ll_clk_acc.o)
 .data          0x0000000000000000        0x0 ..\..\libs\ble\libbtstack_all_roles.a(ll_clk_acc.o)
 .bss           0x0000000000000000        0x0 ..\..\libs\ble\libbtstack_all_roles.a(ll_clk_acc.o)
 .data          0x0000000000000000        0x0 ..\..\libs\ble\libbtstack_all_roles.a(ll_chmap_upd.o)
 .bss           0x0000000000000000        0x0 ..\..\libs\ble\libbtstack_all_roles.a(ll_chmap_upd.o)
 .text          0x0000000000000000        0x0 ..\..\libs\ble\libbtstack_all_roles.a(ll.o)
 .data          0x0000000000000000        0x0 ..\..\libs\ble\libbtstack_all_roles.a(ll.o)
 .bss           0x0000000000000000        0x0 ..\..\libs\ble\libbtstack_all_roles.a(ll.o)
 .data          0x0000000000000000        0x0 ..\..\libs\ble\libbtstack_all_roles.a(ble_scan.o)
 .bss           0x0000000000000000        0x0 ..\..\libs\ble\libbtstack_all_roles.a(ble_scan.o)
 .com_rodata.bb.tbl
                0x0000000000000000        0x7 ..\..\libs\ble\libbtstack_all_roles.a(ble_scan.o)
 .data          0x0000000000000000        0x0 ..\..\libs\ble\libbtstack_all_roles.a(ble_hal.o)
 .bss           0x0000000000000000        0x0 ..\..\libs\ble\libbtstack_all_roles.a(ble_hal.o)
 .data          0x0000000000000000        0x0 ..\..\libs\ble\libbtstack_all_roles.a(ble_adv.o)
 .bss           0x0000000000000000        0x0 ..\..\libs\ble\libbtstack_all_roles.a(ble_adv.o)
 .data          0x0000000000000000        0x0 ..\..\libs\ble\libbtstack_all_roles.a(ble_buf.o)
 .data          0x0000000000000000        0x0 ..\..\libs\ble\libbtstack_all_roles.a(ble.o)
 .bss           0x0000000000000000        0x0 ..\..\libs\ble\libbtstack_all_roles.a(ble.o)
 .text          0x0000000000000000        0x0 ..\..\libs\ble\libbtstack_all_roles.a(bb_sleep.o)
 .data          0x0000000000000000        0x0 ..\..\libs\ble\libbtstack_all_roles.a(bb_sleep.o)
 .bss           0x0000000000000000        0x0 ..\..\libs\ble\libbtstack_all_roles.a(bb_sleep.o)
 .text          0x0000000000000000        0x0 ..\..\libs\ble\libbtstack_all_roles.a(periph.o)
 .data          0x0000000000000000        0x0 ..\..\libs\ble\libbtstack_all_roles.a(periph.o)
 .bss           0x0000000000000000        0x0 ..\..\libs\ble\libbtstack_all_roles.a(periph.o)
 .text.huart    0x0000000000000000        0x4 ..\..\libs\ble\libbtstack_all_roles.a(periph.o)
 .com_text.huart
                0x0000000000000000       0x10 ..\..\libs\ble\libbtstack_all_roles.a(periph.o)
 .comment       0x0000000000000000       0x13 ..\..\libs\ble\libbtstack_all_roles.a(periph.o)
 .riscv.attributes
                0x0000000000000000       0x32 ..\..\libs\ble\libbtstack_all_roles.a(periph.o)
 .text          0x0000000000000000        0x0 ..\..\libs\ble\libbtstack_all_roles.a(l2cap_signaling.o)
 .data          0x0000000000000000        0x0 ..\..\libs\ble\libbtstack_all_roles.a(l2cap_signaling.o)
 .bss           0x0000000000000000        0x0 ..\..\libs\ble\libbtstack_all_roles.a(l2cap_signaling.o)
 .text          0x0000000000000000        0x0 ..\..\libs\ble\libbtstack_all_roles.a(btstack_memory_pool.o)
 .data          0x0000000000000000        0x0 ..\..\libs\ble\libbtstack_all_roles.a(btstack_memory_pool.o)
 .bss           0x0000000000000000        0x0 ..\..\libs\ble\libbtstack_all_roles.a(btstack_memory_pool.o)
 .text          0x0000000000000000        0x0 ..\..\libs\ble\libbtstack_all_roles.a(patch_asm.o)
 .data          0x0000000000000000        0x0 ..\..\libs\ble\libbtstack_all_roles.a(patch_asm.o)
 .bss           0x0000000000000000        0x0 ..\..\libs\ble\libbtstack_all_roles.a(patch_asm.o)
 .text          0x0000000000000000        0x0 ..\..\libs\ble\libbtstack_all_roles.a(platform.o)
 .data          0x0000000000000000        0x0 ..\..\libs\ble\libbtstack_all_roles.a(platform.o)
 .bss           0x0000000000000000        0x0 ..\..\libs\ble\libbtstack_all_roles.a(platform.o)
 .com_text.bb.dbg.bt21
                0x0000000000000000        0x4 ..\..\libs\ble\libbtstack_all_roles.a(platform.o)
 .com_text.bb.utils.dummy
                0x0000000000000000        0x6 ..\..\libs\ble\libbtstack_all_roles.a(platform.o)
 .data          0x0000000000000000        0x0 ..\..\libs\ble\libbtstack_all_roles.a(vs_proc.o)
 .bss           0x0000000000000000        0x0 ..\..\libs\ble\libbtstack_all_roles.a(vs_proc.o)
 .text          0x0000000000000000        0x0 ..\..\libs\ble\libbtstack_all_roles.a(vs_fcc.o)
 .data          0x0000000000000000        0x0 ..\..\libs\ble\libbtstack_all_roles.a(vs_fcc.o)
 .bss           0x0000000000000000        0x0 ..\..\libs\ble\libbtstack_all_roles.a(vs_fcc.o)
 .data          0x0000000000000000        0x0 ..\..\libs\ble\libbtstack_all_roles.a(scan_hook.o)
 .bss           0x0000000000000000        0x0 ..\..\libs\ble\libbtstack_all_roles.a(scan_hook.o)
 .data          0x0000000000000000        0x0 ..\..\libs\ble\libbtstack_all_roles.a(adv_hook.o)
 .bss           0x0000000000000000        0x0 ..\..\libs\ble\libbtstack_all_roles.a(adv_hook.o)
 .data          0x0000000000000000        0x0 ..\..\libs\ble\libbtstack_all_roles.a(mgr_test.o)
 .bss           0x0000000000000000        0x0 ..\..\libs\ble\libbtstack_all_roles.a(mgr_test.o)
 .data          0x0000000000000000        0x0 ..\..\libs\ble\libbtstack_all_roles.a(mgr_proc.o)
 .bss           0x0000000000000000        0x0 ..\..\libs\ble\libbtstack_all_roles.a(mgr_proc.o)
 .data          0x0000000000000000        0x0 ..\..\libs\ble\libbtstack_all_roles.a(mgr_init.o)
 .bss           0x0000000000000000        0x0 ..\..\libs\ble\libbtstack_all_roles.a(mgr_init.o)
 .data          0x0000000000000000        0x0 ..\..\libs\ble\libbtstack_all_roles.a(ll_version.o)
 .bss           0x0000000000000000        0x0 ..\..\libs\ble\libbtstack_all_roles.a(ll_version.o)
 .data          0x0000000000000000        0x0 ..\..\libs\ble\libbtstack_all_roles.a(ll_tbox_prod_test.o)
 .bss           0x0000000000000000        0x0 ..\..\libs\ble\libbtstack_all_roles.a(ll_tbox_prod_test.o)
 .data          0x0000000000000000        0x0 ..\..\libs\ble\libbtstack_all_roles.a(ll_tbox_feature.o)
 .bss           0x0000000000000000        0x0 ..\..\libs\ble\libbtstack_all_roles.a(ll_tbox_feature.o)
 .data          0x0000000000000000        0x0 ..\..\libs\ble\libbtstack_all_roles.a(ll_proc.o)
 .bss           0x0000000000000000        0x0 ..\..\libs\ble\libbtstack_all_roles.a(ll_proc.o)
 .data          0x0000000000000000        0x0 ..\..\libs\ble\libbtstack_all_roles.a(ll_ping.o)
 .bss           0x0000000000000000        0x0 ..\..\libs\ble\libbtstack_all_roles.a(ll_ping.o)
 .data          0x0000000000000000        0x0 ..\..\libs\ble\libbtstack_all_roles.a(ll_phy_upd.o)
 .bss           0x0000000000000000        0x0 ..\..\libs\ble\libbtstack_all_roles.a(ll_phy_upd.o)
 .data          0x0000000000000000        0x0 ..\..\libs\ble\libbtstack_all_roles.a(ll_length.o)
 .bss           0x0000000000000000        0x0 ..\..\libs\ble\libbtstack_all_roles.a(ll_length.o)
 .data          0x0000000000000000        0x0 ..\..\libs\ble\libbtstack_all_roles.a(ll_feature.o)
 .bss           0x0000000000000000        0x0 ..\..\libs\ble\libbtstack_all_roles.a(ll_feature.o)
 .data          0x0000000000000000        0x0 ..\..\libs\ble\libbtstack_all_roles.a(ll_encrypt.o)
 .bss           0x0000000000000000        0x0 ..\..\libs\ble\libbtstack_all_roles.a(ll_encrypt.o)
 .data          0x0000000000000000        0x0 ..\..\libs\ble\libbtstack_all_roles.a(ll_disconnect.o)
 .bss           0x0000000000000000        0x0 ..\..\libs\ble\libbtstack_all_roles.a(ll_disconnect.o)
 .data          0x0000000000000000        0x0 ..\..\libs\ble\libbtstack_all_roles.a(ble_test.o)
 .bss           0x0000000000000000        0x0 ..\..\libs\ble\libbtstack_all_roles.a(ble_test.o)
 .data          0x0000000000000000        0x0 ..\..\libs\ble\libbtstack_all_roles.a(ble_sync.o)
 .bss           0x0000000000000000        0x0 ..\..\libs\ble\libbtstack_all_roles.a(ble_sync.o)
 .data          0x0000000000000000        0x0 ..\..\libs\ble\libbtstack_all_roles.a(ble_init.o)
 .bss           0x0000000000000000        0x0 ..\..\libs\ble\libbtstack_all_roles.a(ble_init.o)
 .com_rodata.bb.tbl
                0x0000000000000000        0x8 ..\..\libs\ble\libbtstack_all_roles.a(ble_init.o)

Memory Configuration

Name             Origin             Length             Attributes
init             0x0000000010000000 0x0000000000000200
flash            0x0000000010000200 0x000000000003e000 xr
stack            0x0000000000010800 0x0000000000000400
sram             0x0000000000010c00 0x0000000000007400
bram             0x0000000000018000 0x0000000000008000
*default*        0x0000000000000000 0xffffffffffffffff

Linker script and memory map

LOAD Output\obj\driver\driver_adv_timer.o
LOAD Output\obj\driver\driver_charge.o
LOAD Output\obj\driver\driver_clk.o
LOAD Output\obj\driver\driver_gpio.o
LOAD Output\obj\driver\driver_hsuart.o
LOAD Output\obj\driver\driver_iic.o
LOAD Output\obj\driver\driver_irrx.o
LOAD Output\obj\driver\driver_irtx.o
LOAD Output\obj\driver\driver_keyscan.o
LOAD Output\obj\driver\driver_ledc.o
LOAD Output\obj\driver\driver_lowpwr.o
LOAD Output\obj\driver\driver_lpwm.o
LOAD Output\obj\driver\driver_qdec.o
LOAD Output\obj\driver\driver_rtc.o
LOAD Output\obj\driver\driver_saradc.o
LOAD Output\obj\driver\driver_sdadc.o
LOAD Output\obj\driver\driver_sddac.o
LOAD Output\obj\driver\driver_spi.o
LOAD Output\obj\driver\driver_tmr.o
LOAD Output\obj\driver\driver_touch_key.o
LOAD Output\obj\driver\driver_uart.o
LOAD Output\obj\driver\driver_wdt.o
LOAD Output\obj\modules\utils\utils_ring_buffer.o
LOAD Output\obj\project\ble_all_roles\app\func.o
LOAD Output\obj\project\ble_all_roles\app\func_bt.o
LOAD Output\obj\project\ble_all_roles\app\func_idle.o
LOAD Output\obj\project\ble_all_roles\app\func_iodm.o
LOAD Output\obj\project\ble_all_roles\app\func_le_bqb_rf.o
LOAD Output\obj\project\ble_all_roles\app\func_le_fcc.o
LOAD Output\obj\project\ble_all_roles\app\func_lowpwr.o
LOAD Output\obj\project\ble_all_roles\app\func_tbox.o
LOAD Output\obj\project\ble_all_roles\app\msg_bt.o
LOAD Output\obj\project\ble_all_roles\app\msg_idle.o
LOAD Output\obj\project\ble_all_roles\app\msg_iodm.o
LOAD Output\obj\project\ble_all_roles\app\msg_le_bqb_rf.o
LOAD Output\obj\project\ble_all_roles\app\msg_le_fcc.o
LOAD Output\obj\project\ble_all_roles\app\msg_tbox.o
LOAD Output\obj\project\ble_all_roles\ble\ble_app.o
LOAD Output\obj\project\ble_all_roles\ble\ble_client.o
LOAD Output\obj\project\ble_all_roles\ble\ble_fota_service.o
LOAD Output\obj\project\ble_all_roles\ble\ble_init.o
LOAD Output\obj\project\ble_all_roles\ble\ble_proc.o
LOAD Output\obj\project\ble_all_roles\ble\ble_service.o
LOAD Output\obj\project\ble_all_roles\ble\ble_user_service.o
LOAD Output\obj\project\ble_all_roles\bsp\bsp_charge.o
LOAD Output\obj\project\ble_all_roles\bsp\bsp_huart.o
LOAD Output\obj\project\ble_all_roles\bsp\bsp_huart_iodm.o
LOAD Output\obj\project\ble_all_roles\bsp\bsp_io_key.o
LOAD Output\obj\project\ble_all_roles\bsp\bsp_key.o
LOAD Output\obj\project\ble_all_roles\bsp\bsp_led.o
LOAD Output\obj\project\ble_all_roles\bsp\bsp_param.o
LOAD Output\obj\project\ble_all_roles\bsp\bsp_saradc.o
LOAD Output\obj\project\ble_all_roles\bsp\bsp_saradc_key.o
LOAD Output\obj\project\ble_all_roles\bsp\bsp_saradc_vbat.o
LOAD Output\obj\project\ble_all_roles\bsp\bsp_sys.o
LOAD Output\obj\project\ble_all_roles\bsp\bsp_touch_key.o
LOAD Output\obj\project\ble_all_roles\bsp\bsp_uart_debug.o
LOAD Output\obj\project\ble_all_roles\main.o
LOAD Output\obj\project\ble_all_roles\production_test\iodm\prod_test_iodm.o
LOAD Output\obj\project\ble_all_roles\production_test\prod_test.o
LOAD Output\obj\project\ble_all_roles\production_test\tbox\prod_test_tbox.o
LOAD Output\obj\project\ble_all_roles\production_test\tbox\tbox_key.o
LOAD Output\obj\project\ble_all_roles\production_test\tbox\tbox_voice.o
LOAD Output\obj\project\ble_all_roles\production_test\tbox\tbox_voice_sdadc.o
LOAD Output\obj\project\ble_all_roles\strong_symbol.o
                0x000000000003e000                __max_flash_size = 0x3e000
                0x0000000010000000                __base = 0x10000000
                0x0000000000010600                __cache_stack_vma = 0x10600
                0x0000000000000200                __cache_stack_size = 0x200
                0x0000000000010800                __stack_vma = 0x10800
                0x0000000000000400                __stack_ram_size = 0x400
                0x0000000000010c00                __sram_vma = 0x10c00
                0x0000000000007400                __sram_ram_size = 0x7400
                0x0000000000010c00                __comm_vma = __sram_vma
                0x0000000000018000                __bram_vma = 0x18000
                0x0000000000008000                __bram_ram_size = 0x8000

.init           0x0000000010000000       0x4e
 *(.reset)
 .reset         0x0000000010000000       0x4e ..\..\libs\cpu\libplatform.a(reset.o)
                0x0000000010000000                _start

.comm           0x0000000000010c00     0x3600 load address 0x0000000010000200
 *(.vector)
 .vector        0x0000000000010c00      0x19a ..\..\libs\cpu\libplatform.a(reset.o)
                0x0000000000010ca0                _exception_isr
                0x0000000000010ca2                nop_isr
 *(.com_text*)
 .com_text.gpio.isr
                0x0000000000010d9a       0x2e Output\obj\project\ble_all_roles\app\func_lowpwr.o
                0x0000000000010d9a                gpio_isr_callback
 .com_text.sleep_tick
                0x0000000000010dc8       0x14 Output\obj\project\ble_all_roles\app\func_lowpwr.o
                0x0000000000010dc8                lowpwr_tout_ticks
 .com_text.key.scan
                0x0000000000010ddc       0x10 Output\obj\project\ble_all_roles\bsp\bsp_io_key.o
                0x0000000000010ddc                bsp_get_io_key_id
 .com_text.key.process
                0x0000000000010dec       0x9e Output\obj\project\ble_all_roles\bsp\bsp_key.o
                0x0000000000010dec                key_process
 .com_text.key.scan
                0x0000000000010e8a       0x3c Output\obj\project\ble_all_roles\bsp\bsp_key.o
                0x0000000000010e8a                bsp_key_scan
 .com_text.key.set.power_on
                0x0000000000010ec6        0x8 Output\obj\project\ble_all_roles\bsp\bsp_key.o
                0x0000000000010ec6                bsp_key_set_power_on_flag
 .com_text.timer
                0x0000000000010ece       0x52 Output\obj\project\ble_all_roles\bsp\bsp_sys.o
                0x0000000000010ece                usr_tmr5ms_thread_do
 .com_text.spiflash
                0x0000000000010f20       0x38 Output\obj\project\ble_all_roles\strong_symbol.o
                0x0000000000010f20                spiflash_data_protect_en
                0x0000000000010f24                os_spiflash_addr_check
 .com_text.spiflash.protect.strong
                0x0000000000010f58        0x6 Output\obj\project\ble_all_roles\strong_symbol.o
                0x0000000000010f58                os_spiflash_data_protect
                0x0000000000010f5a                os_spiflash_data_is_protect
 .com_text.timer
                0x0000000000010f5e        0x2 Output\obj\project\ble_all_roles\strong_symbol.o
                0x0000000000010f5e                usr_tmr5ms_thread_callback
 .com_text.ble.phy
                0x0000000000010f60        0x4 Output\obj\project\ble_all_roles\strong_symbol.o
                0x0000000000010f60                ble_phy_2M_enable
 .com_text.spiflash.dev_id
                0x0000000000010f64       0x34 ..\..\libs\cpu\libplatform.a(os_flash.o)
                0x0000000000010f64                os_spiflash_cap_id_get
 .com_text.spiflash.read
                0x0000000000010f98       0x30 ..\..\libs\cpu\libplatform.a(os_flash.o)
                0x0000000000010f98                os_spiflash_read
 .com_text.spiflash
                0x0000000000010fc8       0xe0 ..\..\libs\cpu\libplatform.a(os_flash.o)
                0x0000000000010fcc                os_spiflash_addr_check_2
                0x0000000000010fe4                os_spiflash_program
                0x000000000001102e                os_spiflash_program_2
                0x0000000000011068                os_spiflash_erase
 .com_text.exception.hook
                0x00000000000110a8       0x3e ..\..\libs\cpu\libplatform.a(main.o)
                0x00000000000110a8                sys_error_hook
 .com_text.exception
                0x00000000000110e6       0x7e ..\..\libs\cpu\libplatform.a(main.o)
                0x00000000000110e6                exception_isr
 .com_text.delay
                0x0000000000011164       0x54 ..\..\libs\cpu\libplatform.a(main.o)
                0x0000000000011164                delay_5ms
                0x000000000001117e                delay_ms
                0x0000000000011196                delay_us
                0x00000000000111ae                delay
 .com_text.irq  0x00000000000111b8       0xe2 ..\..\libs\cpu\libplatform.a(interrupt.o)
                0x00000000000111b8                tick0_isr
                0x0000000000011216                register_isr
                0x0000000000011250                tick_get
                0x0000000000011258                tick_check_expire
                0x000000000001126a                watch_point_isr
 .com_text.timer
                0x000000000001129a        0xe ..\..\libs\cpu\libplatform.a(startup.o)
 .com_text.trim.core_get
                0x00000000000112a8        0x8 ..\..\libs\cpu\libplatform.a(pmu.o)
                0x00000000000112a8                pmu_get_vddcore
 .com_text.trim.lvd_set
                0x00000000000112b0       0x2c ..\..\libs\cpu\libplatform.a(pmu.o)
                0x00000000000112b0                pmu_set_lvd
 .com_text.pmu.flash
                0x00000000000112dc        0xc ..\..\libs\cpu\libplatform.a(pmu.o)
                0x00000000000112dc                pmu_vddio_to_flash
 .com_text.irq  0x00000000000112e8       0x52 ..\..\libs\cpu\libplatform.a(reset.o)
                0x00000000000112e8                cpu_irq_comm
 .com_text.util.isr
                0x000000000001133a        0x6 ..\..\libs\cpu\libplatform.a(reset.o)
                0x000000000001133a                kick_soft_isr
 .com_text.spiflash.delay
                0x0000000000011340        0xc ..\..\libs\cpu\libplatform.a(spiflash.o)
                0x0000000000011340                spi_delay
 .com_text.spiflash.get
                0x000000000001134c       0x28 ..\..\libs\cpu\libplatform.a(spiflash.o)
                0x000000000001134c                spi_getbyte
 .com_text.spiflash.send
                0x0000000000011374       0x1a ..\..\libs\cpu\libplatform.a(spiflash.o)
                0x0000000000011374                spi_sendbyte
 .com_text.spiflash.read
                0x000000000001138e        0x4 ..\..\libs\cpu\libplatform.a(spiflash.o)
                0x000000000001138e                spiflash_read
 .com_text.spiflash.program
                0x0000000000011392       0x24 ..\..\libs\cpu\libplatform.a(spiflash.o)
                0x0000000000011392                spiflash_program
 .com_text.spiflash.erase
                0x00000000000113b6       0x28 ..\..\libs\cpu\libplatform.a(spiflash.o)
                0x00000000000113b6                spiflash_erase
 .com_text.spiflash.addr.size
                0x00000000000113de        0x4 ..\..\libs\cpu\libplatform.a(spiflash.o)
                0x00000000000113de                spiflash_addr_4byte
 .com_text.debug
                0x00000000000113e2       0x68 ..\..\libs\cpu\libplatform.a(debug.o)
 .com_text.key_return
                0x000000000001144a       0x30 ..\..\libs\cpu\libplatform.a(key.o)
                0x000000000001144a                check_key_return
 .com_text.bsp.key
                0x000000000001147a        0xa ..\..\libs\cpu\libplatform.a(key.o)
                0x000000000001147a                key_multi_press_process
 .com_text.sys  0x0000000000011484       0x68 ..\..\libs\cpu\libplatform.a(s_sys.o)
                0x0000000000011484                s_ff1
                0x000000000001148a                s_fl1
                0x0000000000011490                s_log2
                0x0000000000011498                s_clb
                0x000000000001149e                s_bcnt
                0x00000000000114a4                s_ror
                0x00000000000114aa                s_swapw
                0x00000000000114b0                s_bitrvti
                0x00000000000114b6                s_clip16
                0x00000000000114bc                s_abs
                0x00000000000114c2                mul_r
                0x00000000000114ce                dummy_func
                0x00000000000114d0                __ashrdi3
                0x00000000000114de                __ashldi3
 .com_text.get.vrtc24_mv
                0x00000000000114ec        0x8 ..\..\libs\cpu\libplatform.a(voltage_trim.o)
                0x00000000000114ec                pmu_get_vrtc24_mv
 .com_text.get.vbatdet
                0x00000000000114f4       0x26 ..\..\libs\cpu\libplatform.a(voltage_trim.o)
                0x00000000000114f4                pmu_get_vbatdet
 .com_text.timer
                0x000000000001151a        0x4 ..\..\libs\cpu\libplatform.a(weak_symbol.o)
                0x000000000001151c                usr_tmr1ms_isr_callback
 .com_text.stack.api
                0x000000000001151e       0x26 ..\..\libs\cpu\libplatform.a(bt.o)
                0x000000000001151e                bt_send_msg_do
 .com_text.stack.thread
                0x0000000000011544       0x32 ..\..\libs\cpu\libplatform.a(bt.o)
                0x0000000000011544                thread_btstack_pend
                0x0000000000011566                thread_btstack_post
 .com_text.stack.run_loop
                0x0000000000011576       0x64 ..\..\libs\cpu\libplatform.a(bt.o)
                0x0000000000011576                thread_btstack_entry
 .com_text.txpkt.next
                0x00000000000115da       0x4e ..\..\libs\ble\libbtstack_all_roles.a(txpkt.o)
                0x00000000000115da                txpkt_next
 .com_text.txpkt.send
                0x0000000000011628      0x12a ..\..\libs\ble\libbtstack_all_roles.a(txpkt.o)
                0x0000000000011628                txpkt_send
 .com_text.stack.send.txpkt
                0x0000000000011752       0x38 ..\..\libs\ble\libbtstack_all_roles.a(txpkt.o)
                0x0000000000011752                txpkt_event_send
 .com_text.sm.event
                0x000000000001178a       0x6a ..\..\libs\ble\libbtstack_all_roles.a(sm.o)
 .com_text.server.send_req
                0x00000000000117f4       0x12 ..\..\libs\ble\libbtstack_all_roles.a(gatt_server.o)
                0x00000000000117f4                btstack_ble_server_send_req
 .com_text.server.req_can_send
                0x0000000000011806       0x18 ..\..\libs\ble\libbtstack_all_roles.a(att_server.o)
                0x0000000000011806                att_server_request_can_send_now_event
 .com_text.att.event_handler
                0x000000000001181e       0x26 ..\..\libs\ble\libbtstack_all_roles.a(att_server.o)
 .com_text.server.mtu_get
                0x0000000000011844       0x1e ..\..\libs\ble\libbtstack_all_roles.a(att_server.o)
                0x0000000000011844                att_server_get_mtu
 .com_text.att.dispatch_server
                0x0000000000011862        0xc ..\..\libs\ble\libbtstack_all_roles.a(att_dispatch.o)
                0x0000000000011862                att_dispatch_server_request_can_send_now_event
 .com_text.stack.api
                0x000000000001186e       0x80 ..\..\libs\ble\libbtstack_all_roles.a(btstack_api.o)
                0x000000000001186e                btstack_basic_api
                0x0000000000011886                btstack_ctl_param_api
                0x00000000000118a8                bt_get_status
                0x00000000000118b4                btstack_message
 .com_text.ret.bb.sleep
                0x00000000000118ee       0x22 ..\..\libs\ble\libbtstack_all_roles.a(btstack_api.o)
                0x00000000000118ee                bt_is_sleep
 .com_text.ble.send_kick
                0x0000000000011910       0x14 ..\..\libs\ble\libbtstack_all_roles.a(ble_api.o)
                0x0000000000011910                ble_send_kick
 .com_text.bb.isr
                0x0000000000011924       0x58 ..\..\libs\ble\libbtstack_all_roles.a(rf.o)
                0x0000000000011924                rf_rssi_calc_dbm
                0x000000000001192e                rf_txpwr_get_lv
                0x000000000001196a                rf_txpwr_get_dbm
                0x000000000001197a                rf_agc_enable
 .com_text.bb.rf
                0x000000000001197c       0x36 ..\..\libs\ble\libbtstack_all_roles.a(rf.o)
                0x000000000001197c                rf_hal_init
 .com_text.ble.isr.con
                0x00000000000119b2       0x1e ..\..\libs\ble\libbtstack_all_roles.a(ble_con.o)
 .com_text.ble.isr.con.end
                0x00000000000119d0       0x8c ..\..\libs\ble\libbtstack_all_roles.a(ble_con.o)
                0x00000000000119d0                ble_con_rx_end
 .com_text.bb.isr.timer
                0x0000000000011a5c       0xa6 ..\..\libs\ble\libbtstack_all_roles.a(bb_int.o)
                0x0000000000011ab6                bb_timer_alarm_execute
 .com_text.bb.isr
                0x0000000000011b02      0x17a ..\..\libs\ble\libbtstack_all_roles.a(bb_int.o)
                0x0000000000011b34                bb_lpcycles_2_hus
                0x0000000000011b64                bb_isr
                0x0000000000011c6e                bb_hal_isr
 .com_text.bb.sleep
                0x0000000000011c7c       0x48 ..\..\libs\ble\libbtstack_all_roles.a(bb_int.o)
                0x0000000000011c7c                bb_is_sleep
 .com_text.bb.run_loop
                0x0000000000011cc4       0x32 ..\..\libs\ble\libbtstack_all_roles.a(bb.o)
                0x0000000000011cc4                bb_run_loop
 .com_text.dummy
                0x0000000000011cf6        0x6 ..\..\libs\ble\libbtstack_all_roles.a(platform.o)
                0x0000000000011cf6                dummy_void
                0x0000000000011cf8                dummy_false
 .com_text.stk.l2cap.txreq
                0x0000000000011cfc       0x2e ..\..\libs\ble\libbtstack_all_roles.a(l2cap.o)
                0x0000000000011cfc                l2cap_request_can_send_fix_channel_now_event
 .com_text.stack.l2cap
                0x0000000000011d2a       0x10 ..\..\libs\ble\libbtstack_all_roles.a(l2cap.o)
                0x0000000000011d2a                l2cap_get_outgoing_buffer
                0x0000000000011d36                l2cap_reserve_packet_buffer
                0x0000000000011d38                l2cap_release_packet_buffer
 .com_text.stack.hci.conn
                0x0000000000011d3a        0xa ..\..\libs\ble\libbtstack_all_roles.a(hci.o)
                0x0000000000011d3a                hci_get_connections
 .com_text.stack.linked_list
                0x0000000000011d44        0xa ..\..\libs\ble\libbtstack_all_roles.a(hci.o)
                0x0000000000011d44                hci_connections_get_iterator
 .com_text.stack.hci
                0x0000000000011d4e      0x122 ..\..\libs\ble\libbtstack_all_roles.a(hci.o)
                0x0000000000011d4e                hci_connection_for_handle
                0x0000000000011d74                hci_att_connection_for_handle
                0x0000000000011d84                hci_number_free_acl_slots_for_handle
                0x0000000000011d9c                hci_can_send_command_packet_now
                0x0000000000011dce                hci_can_send_acl_le_packet_now
                0x0000000000011e04                hci_can_send_prepared_acl_packet_now
                0x0000000000011e24                hci_can_send_acl_packet_now
                0x0000000000011e36                hci_is_packet_buffer_reserved
                0x0000000000011e42                hci_reserve_packet_buffer
                0x0000000000011e5a                hci_release_packet_buffer
                0x0000000000011e66                hci_get_outgoing_packet_buffer
 .com_text.stack.hci_recv
                0x0000000000011e70        0xe ..\..\libs\ble\libbtstack_all_roles.a(hci.o)
                0x0000000000011e70                hci_host_recv_packet
 .com_text.stack.run_loop
                0x0000000000011e7e       0x76 ..\..\libs\ble\libbtstack_all_roles.a(btstack_run_loop.o)
                0x0000000000011e7e                btstack_cmp_abs_tick
                0x0000000000011e84                btstack_run_loop_execute_once
 .com_text.ret.stack.thread
                0x0000000000011ef4        0xc ..\..\libs\ble\libbtstack_all_roles.a(btstack_run_loop.o)
                0x0000000000011ef4                btstack_run_loop_embedded_trigger
 .com_text.stack.ticks
                0x0000000000011f00       0x1e ..\..\libs\ble\libbtstack_all_roles.a(btstack_run_loop.o)
 .com_text.bb.nanos.trigger
                0x0000000000011f1e        0x2 ..\..\libs\ble\libbtstack_all_roles.a(btstack_run_loop.o)
                0x0000000000011f1e                thread_nanos_task_trigger
 .com_text.stack.linked_list
                0x0000000000011f20       0x50 ..\..\libs\ble\libbtstack_all_roles.a(btstack_linked_list.o)
                0x0000000000011f20                btstack_linked_list_empty
                0x0000000000011f28                btstack_linked_list_iterator_init
                0x0000000000011f34                btstack_linked_list_iterator_has_next
                0x0000000000011f52                btstack_linked_list_iterator_next
 .com_text.stack.hcic
                0x0000000000011f70       0x82 ..\..\libs\ble\libbtstack_all_roles.a(hci_transport_hcic.o)
                0x0000000000011f70                hcic_can_send_packet_now
                0x0000000000011f7e                hcic_recv_packet
 .com_text.hci  0x0000000000011ff2        0x4 ..\..\libs\ble\libbtstack_all_roles.a(hci_transport_h3_controller.o)
                0x0000000000011ff2                hci_is_sleep
 .com_text.stack.handler
                0x0000000000011ff6       0x1e ..\..\libs\ble\libbtstack_all_roles.a(btstack_main.o)
 .com_text.stack.ticks
                0x0000000000012014        0xa ..\..\libs\ble\libbtstack_all_roles.a(btstack_hal.o)
                0x0000000000012016                sys_tick_handler
 .com_text.isr  0x000000000001201e       0x20 ..\..\libs\ble\libbtstack_all_roles.a(btstack_hal.o)
                0x000000000001201e                bt_timer_isr
 .com_text.md.nanos
                0x000000000001203e       0x14 ..\..\libs\ble\libbtstack_all_roles.a(nanos.o)
                0x000000000001203e                nanos_event_set
 .com_text.ret.bb
                0x0000000000012052        0x2 ..\..\libs\ble\libbtstack_all_roles.a(nanos.o)
                0x0000000000012052                nanos_sleep_restore
 .com_text.bb.frag
                0x0000000000012054       0x2a ..\..\libs\ble\libbtstack_all_roles.a(bb_sche.o)
 .com_text.bb.prog
                0x000000000001207e      0x156 ..\..\libs\ble\libbtstack_all_roles.a(bb_sche.o)
 .com_text.bb.patch
                0x00000000000121d4       0x42 ..\..\libs\ble\libbtstack_all_roles.a(patch.o)
                0x00000000000121d4                bb_v1_patch1_do
 .com_text.ble.isr.con.end
                0x0000000000012216       0x18 ..\..\libs\ble\libbtstack_all_roles.a(patch.o)
                0x0000000000012216                bb_v1_patch2_do
 .com_text.dbg_init
                0x000000000001222e        0x2 ..\..\libs\ble\libbtstack_all_roles.a(bb_dbg.o)
                0x000000000001222e                bb_dbg_init
 .com_text.bb.isr
                0x0000000000012230       0x1a ..\..\libs\ble\libbtstack_all_roles.a(aes.o)
 .com_text.ble.isr
                0x000000000001224a       0x88 ..\..\libs\ble\libbtstack_all_roles.a(ble_hook.o)
                0x000000000001224a                ble_isr_hook
 .com_text.bb.sleep
                0x00000000000122d2       0x14 ..\..\libs\ble\libbtstack_all_roles.a(hct_tl.o)
                0x00000000000122d2                hct_queue_is_empty
 .com_text.ble.isr.con
                0x00000000000122e6      0x13e ..\..\libs\ble\libbtstack_all_roles.a(ll_tbox_freq_cal.o)
                0x00000000000122e6                ll_tbox_freq_cal_time_record
                0x000000000001236a                ll_tbox_freq_cal_patch
 .com_text.ble.isr
                0x0000000000012424       0x82 ..\..\libs\ble\libbtstack_all_roles.a(ble_hal.o)
                0x0000000000012424                ble_rxdesc_buf_ready
 .com_text.ble.isr.con.chas
                0x00000000000124a6       0x3a ..\..\libs\ble\libbtstack_all_roles.a(ble_hal.o)
                0x00000000000124a6                ble_channel_assess
 .com_text.bb.buf
                0x00000000000124e0       0x44 ..\..\libs\ble\libbtstack_all_roles.a(ble_buf.o)
                0x00000000000124e0                ble_buf_rx_free
 .com_text.bb.isr
                0x0000000000012524       0x34 ..\..\libs\ble\libbtstack_all_roles.a(ble.o)
                0x0000000000012524                ble_isr
 .com_text.bb.patch
                0x0000000000012558       0x34 ..\..\libs\ble\libbtstack_all_roles.a(patch_asm.o)
                0x0000000000012558                bb_v1_patch0
                0x000000000001255a                ll_tbox_freq_cal_patch_ret
                0x0000000000012562                bb_v1_patch1
                0x000000000001256e                bb_v1_patch2
                0x0000000000012588                bb_v1_patch3
 .com_text.bb.dbg.ble
                0x000000000001258c        0x4 ..\..\libs\ble\libbtstack_all_roles.a(platform.o)
                0x000000000001258c                bb_ll_tx_cb
                0x000000000001258e                bb_ll_rx_cb
 *(.com_rodata*)
 *fill*         0x0000000000012590        0x0 
 .com_rodata.svc_info
                0x0000000000012590      0x774 Output\obj\project\ble_all_roles\ble\ble_client.o
 .com_rodata.key
                0x0000000000012d04        0x8 Output\obj\project\ble_all_roles\bsp\bsp_key.o
                0x0000000000012d04                allow_multiple_key_table
 .com_rodata.exception
                0x0000000000012d0c       0x49 ..\..\libs\cpu\libplatform.a(main.o)
 *fill*         0x0000000000012d55        0x3 
 .com_rodata.irq
                0x0000000000012d58       0x1b ..\..\libs\cpu\libplatform.a(interrupt.o)
                0x0000000000012d58                watch_point_str
 *fill*         0x0000000000012d73        0x1 
 .com_rodata.miss
                0x0000000000012d74       0x29 ..\..\libs\cpu\libplatform.a(debug.o)
 *fill*         0x0000000000012d9d        0x3 
 .com_rodata.multi.key
                0x0000000000012da0        0x8 ..\..\libs\cpu\libplatform.a(key.o)
                0x0000000000012da0                key_multi_tbl
 .com_rodata.stack.api
                0x0000000000012da8        0xc ..\..\libs\ble\libbtstack_all_roles.a(btstack_api.o)
                0x0000000000012da8                btstack_api_tbl
 .com_rodata.bb.tbl
                0x0000000000012db4        0x8 ..\..\libs\ble\libbtstack_all_roles.a(rf.o)
 .com_rodata.bb.tbl
                0x0000000000012dbc       0x44 ..\..\libs\ble\libbtstack_all_roles.a(bb_utils.o)
                0x0000000000012dbc                bb_rate_to_byte_dur_us
                0x0000000000012dc4                bb_rate_to_phy_mask
                0x0000000000012dc8                bb_phy_value_to_mask
                0x0000000000012dcc                bb_phy_mask_to_value
                0x0000000000012dd4                bb_phy_to_rate
                0x0000000000012dd8                bb_rate_to_phy
                0x0000000000012de0                bb_sca2ppm
                0x0000000000012df0                one_bits
 .com_rodata.bb.err
                0x0000000000012e00        0xd ..\..\libs\ble\libbtstack_all_roles.a(bb_int.o)
                0x0000000000012e00                str_bb_err
 *fill*         0x0000000000012e0d        0x3 
 .com_rodata.bb.tbl
                0x0000000000012e10       0x16 ..\..\libs\ble\libbtstack_all_roles.a(bb.o)
                0x0000000000012e10                bb_priority
 *fill*         0x0000000000012e26        0x2 
 .com_rodata.hci.trans
                0x0000000000012e28       0x20 ..\..\libs\ble\libbtstack_all_roles.a(hci_transport_hcic.o)
 .com_rodata.bb.tbl
                0x0000000000012e48       0x18 ..\..\libs\ble\libbtstack_all_roles.a(ble_buf.o)
 .com_rodata.bb.err
                0x0000000000012e60        0xf ..\..\libs\ble\libbtstack_all_roles.a(ble.o)
                0x0000000000012e60                str_ble_err
 *fill*         0x0000000000012e6f        0x1 
 .com_rodata.bb.tbl
                0x0000000000012e70        0xc ..\..\libs\ble\libbtstack_all_roles.a(vs_proc.o)
                0x0000000000012e70                vs_msg_env
 .com_rodata.bb.tbl
                0x0000000000012e7c        0xc ..\..\libs\ble\libbtstack_all_roles.a(mgr_proc.o)
                0x0000000000012e7c                mgr_msg_env
 .com_rodata.bb.tbl
                0x0000000000012e88        0xc ..\..\libs\ble\libbtstack_all_roles.a(ll_proc.o)
                0x0000000000012e88                ll_msg_env
 *debug.o(.rodata*)
 *(.com_sleep*)
 .com_sleep.lv2_do
                0x0000000000012e94       0x84 Output\obj\driver\driver_lowpwr.o
                0x0000000000012e94                lp_sleep_lv2_do
 .com_sleep.lv2_proc
                0x0000000000012f18      0x2e4 Output\obj\driver\driver_lowpwr.o
                0x0000000000012f18                lp_sleep_lv2_proc
                0x000000000001305c                lowpwr_sleep_lv2_proc
 .com_sleep.lv2_wakeup
                0x00000000000131fc      0x1b0 Output\obj\driver\driver_lowpwr.o
                0x00000000000131fc                lp_wakeup_lv2_proc
 .com_sleep.sleep
                0x00000000000133ac        0x4 Output\obj\driver\driver_lowpwr.o
                0x00000000000133ac                lowpwr_sleep_proc
 .com_sleep.lv2
                0x00000000000133b0       0x80 Output\obj\project\ble_all_roles\app\func_lowpwr.o
                0x00000000000133b0                lowpwr_sleep_sfr_user_save
                0x00000000000133ec                lowpwr_sleep_sfr_user_resume
 .com_sleep.sleep
                0x0000000000013430        0xe Output\obj\project\ble_all_roles\app\func_lowpwr.o
                0x0000000000013430                sys_sleep_cb
                0x000000000001343a                sleep_timer
 .com_sleep.lowpwr.sleep
                0x000000000001343e       0x42 Output\obj\project\ble_all_roles\app\func_lowpwr.o
                0x000000000001343e                sfunc_sleep_do
 .com_sleep.ble.sleep
                0x0000000000013480        0x2 Output\obj\project\ble_all_roles\ble\ble_proc.o
                0x0000000000013480                ble_proc_pending
 .com_sleep.ble.sleep
                0x0000000000013482        0x8 Output\obj\project\ble_all_roles\ble\ble_user_service.o
                0x0000000000013482                ble_user_service_pending
 .com_sleep.sleep.rc
                0x000000000001348a       0x4e ..\..\libs\cpu\libplatform.a(rc.o)
                0x000000000001348a                rc_sleep_get_trim_freqcnt
 .com_sleep.lp.sleep
                0x00000000000134d8      0x15e ..\..\libs\cpu\libplatform.a(sleep.o)
                0x00000000000134d8                lowpwr_sleep_sfr_save
                0x00000000000134fe                lowpwr_sleep_sfr_resume
 .com_sleep.sleep
                0x0000000000013636        0x2 ..\..\libs\ble\libbtstack_all_roles.a(btstack_api.o)
                0x0000000000013636                bt_sleep_proc
 .com_sleep.bb  0x0000000000013638       0x9a ..\..\libs\ble\libbtstack_all_roles.a(rf.o)
                0x0000000000013638                rf_sleep
                0x0000000000013674                rf_wakeup
 .com_sleep.bb  0x00000000000136d2      0x240 ..\..\libs\ble\libbtstack_all_roles.a(bb_int.o)
                0x00000000000136d2                bb_sleep
 .com_sleep.sleep
                0x0000000000013912        0x4 ..\..\libs\ble\libbtstack_all_roles.a(extern.o)
                0x0000000000013912                sys_sleep_check
 .com_sleep.bb  0x0000000000013916        0x8 ..\..\libs\ble\libbtstack_all_roles.a(bb_sche.o)
                0x0000000000013916                bb_sche_resume
 .com_sleep.bb  0x000000000001391e        0x8 ..\..\libs\ble\libbtstack_all_roles.a(extern.o)
                0x000000000001391e                ble_sleep_duration_max_get
 .com_sleep.rfphy
                0x0000000000013926        0x4 ..\..\libs\ble\libbtstack_all_roles.a(extern.o)
                0x0000000000013926                ble_rf_freq_bands_private
 .com_sleep.rf  0x000000000001392a      0x17c ..\..\libs\ble\libbtstack_all_roles.a(rf_xbox.o)
                0x00000000000139fe                rfphy_deep_sleep
                0x0000000000013a1a                rfphy_idle
                0x0000000000013a36                modem_init
 .com_sleep.rfphy
                0x0000000000013aa6      0x564 ..\..\libs\ble\libbtstack_all_roles.a(rf_xbox.o)
                0x0000000000013b4a                rfphy_txrx_init
                0x0000000000013c9a                rfphy_init
 .com_sleep.bb  0x000000000001400a       0x82 ..\..\libs\ble\libbtstack_all_roles.a(bb_sleep.o)
                0x000000000001400a                bb_sleep_suspend
                0x000000000001401a                bb_sleep_resume
 *(.com_periph.*)
 .com_periph.charge
                0x000000000001408c       0x22 Output\obj\driver\driver_charge.o
                0x000000000001408c                charge_get_status
                0x0000000000014094                charge_detect_dc
 .com_periph.gpio.toggle
                0x00000000000140ae        0x8 Output\obj\driver\driver_gpio.o
                0x00000000000140ae                gpio_toggle_bits
 .com_periph.wk0.read_bit
                0x00000000000140b6        0xa Output\obj\driver\driver_gpio.o
                0x00000000000140b6                wko_io_read_bit
 .com_periph.lowpwr.sleep
                0x00000000000140c0       0x24 Output\obj\driver\driver_lowpwr.o
                0x00000000000140c0                lowpwr_is_wakeup_pending
 .com_periph.saradc.kick
                0x00000000000140e4       0x26 Output\obj\driver\driver_saradc.o
                0x00000000000140e4                saradc_kick_start
 .com_periph.saradc.get_channel
                0x000000000001410a       0x1c Output\obj\driver\driver_saradc.o
                0x000000000001410a                saradc_get_channel_flag
 .com_periph.saradc.get_data
                0x0000000000014126       0x64 Output\obj\driver\driver_saradc.o
                0x0000000000014126                saradc_get_data
 *(.data*)
 *(.sdata*)
 *fill*         0x000000000001418a        0x2 
 .sdata.__func__.4553
                0x000000000001418c        0x8 Output\obj\project\ble_all_roles\app\func_bt.o
 .sdata.adv_data_const
                0x0000000000014194        0x7 Output\obj\project\ble_all_roles\ble\ble_service.o
                0x0000000000014194                adv_data_const
 .sdata.charge_status_last.4699
                0x000000000001419b        0x1 Output\obj\project\ble_all_roles\bsp\bsp_charge.o
 .sdata.div.4770
                0x000000000001419c        0x1 Output\obj\project\ble_all_roles\bsp\bsp_saradc_vbat.o
 .sdata.cfg_spiflash_speed_up_en
                0x000000000001419d        0x1 Output\obj\project\ble_all_roles\strong_symbol.o
                0x000000000001419d                cfg_spiflash_speed_up_en
 .sdata         0x000000000001419e        0x2 ..\..\libs\ble\libbtstack_all_roles.a(sm.o)
 .sdata         0x00000000000141a0        0x1 ..\..\libs\ble\libbtstack_all_roles.a(extern_ble.o)
                0x00000000000141a0                cfg_bt_sniff_clk_sel
 *fill*         0x00000000000141a1        0x3 
 .sdata         0x00000000000141a4        0xc ..\..\libs\ble\libbtstack_all_roles.a(btstack_hal.o)
 .sdata         0x00000000000141b0        0x1 ..\..\libs\ble\libbtstack_all_roles.a(rf_xbox.o)
 *(.mp3_text*)
                0x0000000000014200                . = ALIGN (0x200)
 *fill*         0x00000000000141b1       0x4f 

.flash          0x0000000010003800    0x1ca00
                0x0000000010003800                __code_start_app_proc = .
 *(.text.app.proc.*)
 .text.app.proc.charge
                0x0000000010003800      0x1c4 Output\obj\driver\driver_charge.o
                0x0000000010003800                charge_process
 .text.app.proc.func
                0x00000000100039c4       0x18 Output\obj\project\ble_all_roles\app\func.o
                0x00000000100039c4                func_process
 .text.app.proc.bt
                0x00000000100039dc       0x18 Output\obj\project\ble_all_roles\app\func_bt.o
                0x00000000100039dc                func_bt_sub_process
                0x00000000100039de                func_bt_process
 .text.app.proc.sleep
                0x00000000100039f4      0x162 Output\obj\project\ble_all_roles\app\func_lowpwr.o
                0x00000000100039f4                sleep_process
 .text.app.proc.msg
                0x0000000010003b56        0x8 Output\obj\project\ble_all_roles\app\msg_bt.o
                0x0000000010003b56                func_bt_message
 .text.app.proc.ble
                0x0000000010003b5e        0x4 Output\obj\project\ble_all_roles\ble\ble_proc.o
                0x0000000010003b5e                ble_app_proc
 .text.app.proc.charge
                0x0000000010003b62       0xae Output\obj\project\ble_all_roles\bsp\bsp_charge.o
                0x0000000010003b62                bsp_charge_process
 .text.app.proc.saradc
                0x0000000010003c10       0x2a Output\obj\project\ble_all_roles\bsp\bsp_saradc.o
                0x0000000010003c10                bsp_saradc_process
 .text.app.proc.vbat
                0x0000000010003c3a       0xd8 Output\obj\project\ble_all_roles\bsp\bsp_saradc_vbat.o
                0x0000000010003c3a                bsp_vbat_lowpwr_detect
                0x0000000010003c92                bsp_vbat_proc
 .text.app.proc.test
                0x0000000010003d12        0x2 Output\obj\project\ble_all_roles\production_test\prod_test.o
                0x0000000010003d12                prod_test_process
                0x0000000010003e00                . = ALIGN (0x200)
 *fill*         0x0000000010003d14       0xec 
                0x0000000010003e00                __code_end_app_proc = .
                0x0000000010003e00                __code_start_stack_send = .
 *(.text.stack.send.*)
 .text.stack.send.ntf_do
                0x0000000010003e00       0x58 ..\..\libs\ble\libbtstack_all_roles.a(gatt_server.o)
 .text.stack.send.ntf
                0x0000000010003e58       0x42 ..\..\libs\ble\libbtstack_all_roles.a(gatt_server.o)
                0x0000000010003e58                ble_send_notify_packet
                0x0000000010003e96                ble_notify_for_handle
 .text.stack.send.server
                0x0000000010003e9a       0x9a ..\..\libs\ble\libbtstack_all_roles.a(gatt_server.o)
                0x0000000010003e9a                att_event_server_send
 .text.stack.send.ntf
                0x0000000010003f34       0x46 ..\..\libs\ble\libbtstack_all_roles.a(att_server.o)
                0x0000000010003f34                att_server_notify
 .text.stack.send.ntf
                0x0000000010003f7a       0x3e ..\..\libs\ble\libbtstack_all_roles.a(att_db.o)
                0x0000000010003f7a                att_prepare_handle_value_notification
 .text.stack.send.l2cap
                0x0000000010003fb8       0x50 ..\..\libs\ble\libbtstack_all_roles.a(l2cap.o)
                0x0000000010003fb8                l2cap_send_prepared_connectionless
 .text.stack.send.hci
                0x0000000010004008      0x290 ..\..\libs\ble\libbtstack_all_roles.a(hci.o)
                0x00000000100040d0                hci_send_acl_packet_buffer
 .text.stack.send.hci
                0x0000000010004298       0x92 ..\..\libs\ble\libbtstack_all_roles.a(hci_transport_hcic.o)
                0x0000000010004298                hcic_send_acl_segment
                0x00000000100042c8                hcic_send_packet
 .text.stack.send.hci_tx_done
                0x000000001000432a       0x2a ..\..\libs\ble\libbtstack_all_roles.a(hct_tl.o)
                0x000000001000432a                hci_tx_done
 .text.stack.send.hci
                0x0000000010004354       0x96 ..\..\libs\ble\libbtstack_all_roles.a(hct_tl.o)
                0x0000000010004354                hci_acl_tx_data_alloc
                0x000000001000438e                hci_acl_tx_data_received
 .text.stack.send.acl
                0x00000000100043ea       0xbc ..\..\libs\ble\libbtstack_all_roles.a(ll_proc.o)
                0x00000000100043ea                hci_acl_data_func
                0x0000000010004600                . = ALIGN (0x200)
 *fill*         0x00000000100044a6      0x15a 
                0x0000000010004600                __code_end_stack_send = .
 *(.text*)
 .text.charge_init
                0x0000000010004600       0xd0 Output\obj\driver\driver_charge.o
                0x0000000010004600                charge_init
 .text.charge_status_update
                0x00000000100046d0      0x140 Output\obj\driver\driver_charge.o
                0x00000000100046d0                charge_status_update
 .text.clk_gate0_cmd
                0x0000000010004810       0x16 Output\obj\driver\driver_clk.o
                0x0000000010004810                clk_gate0_cmd
 .text.clk_saradc_clk_get
                0x0000000010004826       0x42 Output\obj\driver\driver_clk.o
                0x0000000010004826                clk_saradc_clk_get
 .text.clk_udet_clk_get
                0x0000000010004868       0x3c Output\obj\driver\driver_clk.o
                0x0000000010004868                clk_udet_clk_get
 .text.clk_uart_inc_get
                0x00000000100048a4       0x32 Output\obj\driver\driver_clk.o
                0x00000000100048a4                clk_uart_inc_get
 .text.gpio_init
                0x00000000100048d6      0x10e Output\obj\driver\driver_gpio.o
                0x00000000100048d6                gpio_init
 .text.gpio_func_mapping_config
                0x00000000100049e4       0xc6 Output\obj\driver\driver_gpio.o
                0x00000000100049e4                gpio_func_mapping_config
 .text.wko_io_config
                0x0000000010004aaa       0x4e Output\obj\driver\driver_gpio.o
                0x0000000010004aaa                wko_io_config
 .text.wk0_edge_capture_config
                0x0000000010004af8       0x5a Output\obj\driver\driver_gpio.o
                0x0000000010004af8                wk0_edge_capture_config
 .text.gpio_edge_capture_idx_get
                0x0000000010004b52       0x4a Output\obj\driver\driver_gpio.o
                0x0000000010004b52                gpio_edge_capture_idx_get
 .text.gpio_edge_capture_config
                0x0000000010004b9c       0xa6 Output\obj\driver\driver_gpio.o
                0x0000000010004b9c                gpio_edge_capture_config
 .text.gpio_edge_pic_config
                0x0000000010004c42       0x26 Output\obj\driver\driver_gpio.o
                0x0000000010004c42                gpio_edge_pic_config
 .text.lowpwr_get_wakeup_source
                0x0000000010004c68       0xb0 Output\obj\driver\driver_lowpwr.o
                0x0000000010004c68                lowpwr_get_wakeup_source
 .text.lowpwr_wakeup_disable
                0x0000000010004d18       0x38 Output\obj\driver\driver_lowpwr.o
                0x0000000010004d18                lowpwr_wakeup_disable
 .text.lowpwr_clr_wakeup_pending
                0x0000000010004d50       0x1c Output\obj\driver\driver_lowpwr.o
                0x0000000010004d50                lowpwr_clr_wakeup_pending
 .text.lowpwr_wk0_wakeup_config
                0x0000000010004d6c       0x6e Output\obj\driver\driver_lowpwr.o
                0x0000000010004d6c                lowpwr_wk0_wakeup_config
 .text.lowpwr_gpio_wakeup_config
                0x0000000010004dda       0x5a Output\obj\driver\driver_lowpwr.o
                0x0000000010004dda                lowpwr_gpio_wakeup_config
 .text.lowpwr_wakeup_config_do
                0x0000000010004e34       0xf4 Output\obj\driver\driver_lowpwr.o
                0x0000000010004e34                lowpwr_wakeup_config_do
 .text.lowpwr_wakeup_config_2
                0x0000000010004f28        0x6 Output\obj\driver\driver_lowpwr.o
                0x0000000010004f28                lowpwr_wakeup_config_2
 .text.lowpwr_wakeup_source_enable
                0x0000000010004f2e       0xb8 Output\obj\driver\driver_lowpwr.o
                0x0000000010004f2e                lowpwr_wakeup_source_enable
 .text.lowpwr_wakeup_source_disable
                0x0000000010004fe6       0xce Output\obj\driver\driver_lowpwr.o
                0x0000000010004fe6                lowpwr_wakeup_source_disable
 *fill*         0x00000000100050b4      0x14c 
 .text.lowpwr_pwroff_mode1_do
                0x0000000010005200      0x1f8 Output\obj\driver\driver_lowpwr.o
                0x0000000010005200                lowpwr_pwroff_mode1_do
 .text.saradc_init
                0x00000000100053f8       0x66 Output\obj\driver\driver_saradc.o
                0x00000000100053f8                saradc_init
 .text.saradc_channel_init
                0x000000001000545e      0x19e Output\obj\driver\driver_saradc.o
                0x000000001000545e                saradc_channel_init
 .text.saradc_deinit
                0x00000000100055fc       0xbc Output\obj\driver\driver_saradc.o
                0x00000000100055fc                saradc_deinit
 .text.saradc_cmd
                0x00000000100056b8       0x16 Output\obj\driver\driver_saradc.o
                0x00000000100056b8                saradc_cmd
 .text.uart_init
                0x00000000100056ce       0xa0 Output\obj\driver\driver_uart.o
                0x00000000100056ce                uart_init
 .text.uart_cmd
                0x000000001000576e       0x10 Output\obj\driver\driver_uart.o
                0x000000001000576e                uart_cmd
 .text.uart_baud_config
                0x000000001000577e       0x72 Output\obj\driver\driver_uart.o
                0x000000001000577e                uart_baud_config
 .text.func.msg
                0x00000000100057f0      0x128 Output\obj\project\ble_all_roles\app\func.o
                0x00000000100057f0                func_message
 .text.func     0x0000000010005918       0x70 Output\obj\project\ble_all_roles\app\func.o
                0x0000000010005918                func_enter
                0x0000000010005936                func_exit
                0x0000000010005940                func_run
 .text.func.bt  0x0000000010005988       0x6c Output\obj\project\ble_all_roles\app\func_bt.o
                0x0000000010005988                func_bt_init
                0x000000001000598c                func_bt_enter
                0x00000000100059a2                func_bt_exit
                0x00000000100059bc                func_bt
 .text.func.idle
                0x00000000100059f4       0x40 Output\obj\project\ble_all_roles\app\func_idle.o
                0x00000000100059f4                func_idle_process
                0x00000000100059f8                func_idle
 .text.bsp_gpio_wakeup_config
                0x0000000010005a34       0x32 Output\obj\project\ble_all_roles\app\func_lowpwr.o
                0x0000000010005a34                bsp_gpio_wakeup_config
 .text.lowpwr_sleep_wakeup_config
                0x0000000010005a66       0x40 Output\obj\project\ble_all_roles\app\func_lowpwr.o
                0x0000000010005a66                lowpwr_sleep_wakeup_config
 .text.lowpwr_pwroff_wakeup_config
                0x0000000010005aa6       0x3a Output\obj\project\ble_all_roles\app\func_lowpwr.o
                0x0000000010005aa6                lowpwr_pwroff_wakeup_config
 .text.lowpwr.pwroff
                0x0000000010005ae0       0x32 Output\obj\project\ble_all_roles\app\func_lowpwr.o
                0x0000000010005ae0                func_pwroff
 .text.func.msg
                0x0000000010005b12        0xc Output\obj\project\ble_all_roles\app\msg_bt.o
                0x0000000010005b12                func_bt_message_do
 .text.func.idle.msg
                0x0000000010005b1e        0x2 Output\obj\project\ble_all_roles\app\msg_idle.o
                0x0000000010005b1e                func_idle_message
 .text.ble_app_env_init
                0x0000000010005b20       0x16 Output\obj\project\ble_all_roles\ble\ble_app.o
                0x0000000010005b20                ble_app_env_init
 .text.ble_get_conn_cnt
                0x0000000010005b36       0x28 Output\obj\project\ble_all_roles\ble\ble_app.o
                0x0000000010005b36                ble_get_conn_cnt
 .text.ble_adv_scan_state_correct
                0x0000000010005b5e       0x34 Output\obj\project\ble_all_roles\ble\ble_app.o
                0x0000000010005b5e                ble_adv_scan_state_correct
 .text.ble_conn_state_set
                0x0000000010005b92        0xc Output\obj\project\ble_all_roles\ble\ble_app.o
                0x0000000010005b92                ble_conn_state_set
 .text.ble_advertising_report_callback
                0x0000000010005b9e      0x112 Output\obj\project\ble_all_roles\ble\ble_app.o
                0x0000000010005b9e                ble_advertising_report_callback
 .text.ble_client_event_callback
                0x0000000010005cb0      0x4c2 Output\obj\project\ble_all_roles\ble\ble_client.o
                0x0000000010005cb0                ble_client_event_callback
 .text.ble_att_read_callback
                0x0000000010006172       0x2a Output\obj\project\ble_all_roles\ble\ble_client.o
 .text.ble_client_notify_callback
                0x000000001000619c       0x2a Output\obj\project\ble_all_roles\ble\ble_client.o
 .text.ble_client_init
                0x00000000100061c6       0x40 Output\obj\project\ble_all_roles\ble\ble_client.o
                0x00000000100061c6                ble_client_init
 .text.ble_info_init
                0x0000000010006206       0x28 Output\obj\project\ble_all_roles\ble\ble_init.o
                0x0000000010006206                ble_info_init
 .text.ble_get_ble_info
                0x000000001000622e        0x8 Output\obj\project\ble_all_roles\ble\ble_init.o
                0x000000001000622e                ble_get_ble_info
 .text.ble_get_conidx
                0x0000000010006236       0x32 Output\obj\project\ble_all_roles\ble\ble_init.o
                0x0000000010006236                ble_get_conidx
 .text.ble_get_free_conidx
                0x0000000010006268       0x3a Output\obj\project\ble_all_roles\ble\ble_init.o
                0x0000000010006268                ble_get_free_conidx
 .text.ble_get_role
                0x00000000100062a2       0x18 Output\obj\project\ble_all_roles\ble\ble_init.o
                0x00000000100062a2                ble_get_role
 .text.ble_set_work_mode
                0x00000000100062ba        0x8 Output\obj\project\ble_all_roles\ble\ble_init.o
                0x00000000100062ba                ble_set_work_mode
 .text.ble_txpkt_init
                0x00000000100062c2       0x40 Output\obj\project\ble_all_roles\ble\ble_init.o
                0x00000000100062c2                ble_txpkt_init
 .text.ble_sm_param_init
                0x0000000010006302        0xa Output\obj\project\ble_all_roles\ble\ble_init.o
                0x0000000010006302                ble_sm_param_init
 .text.ble_adv_param_init
                0x000000001000630c       0x52 Output\obj\project\ble_all_roles\ble\ble_init.o
                0x000000001000630c                ble_adv_param_init
 .text.ble_scan_param_init
                0x000000001000635e       0x2c Output\obj\project\ble_all_roles\ble\ble_init.o
                0x000000001000635e                ble_scan_param_init
 .text.ble_all_roles_init
                0x000000001000638a       0x26 Output\obj\project\ble_all_roles\ble\ble_init.o
                0x000000001000638a                ble_all_roles_init
 .text.bsp_ble_init
                0x00000000100063b0       0x1c Output\obj\project\ble_all_roles\ble\ble_init.o
                0x00000000100063b0                bsp_ble_init
 .text.ble_enter_sleep_proc
                0x00000000100063cc       0xa6 Output\obj\project\ble_all_roles\ble\ble_proc.o
                0x00000000100063cc                ble_enter_sleep_proc
 .text.ble_exit_sleep_proc
                0x0000000010006472       0x7e Output\obj\project\ble_all_roles\ble\ble_proc.o
                0x0000000010006472                ble_exit_sleep_proc
 .text.ble_get_scan_data
                0x00000000100064f0       0x58 Output\obj\project\ble_all_roles\ble\ble_service.o
                0x00000000100064f0                ble_get_scan_data
 .text.ble_get_adv_data
                0x0000000010006548       0x66 Output\obj\project\ble_all_roles\ble\ble_service.o
                0x0000000010006548                ble_get_adv_data
 .text.ble_get_profile_data
                0x00000000100065ae        0xa Output\obj\project\ble_all_roles\ble\ble_service.o
                0x00000000100065ae                ble_get_profile_data
 .text.ble_service_init
                0x00000000100065b8       0x16 Output\obj\project\ble_all_roles\ble\ble_service.o
                0x00000000100065b8                ble_service_init
 .text.ble_event_callback
                0x00000000100065ce      0x1c4 Output\obj\project\ble_all_roles\ble\ble_user_service.o
 .text.service_read_callback
                0x0000000010006792       0x62 Output\obj\project\ble_all_roles\ble\ble_user_service.o
 .text.service_write_callback
                0x00000000100067f4       0x9c Output\obj\project\ble_all_roles\ble\ble_user_service.o
 .text.ble_user_service_init
                0x0000000010006890       0x52 Output\obj\project\ble_all_roles\ble\ble_user_service.o
                0x0000000010006890                ble_user_service_init
 .text.ble_user_service_proc
                0x00000000100068e2       0x9c Output\obj\project\ble_all_roles\ble\ble_user_service.o
                0x00000000100068e2                ble_user_service_proc
 .text.bsp_charge_init
                0x000000001000697e       0x2c Output\obj\project\ble_all_roles\bsp\bsp_charge.o
                0x000000001000697e                bsp_charge_init
 .text.bsp_io_key_init
                0x00000000100069aa        0xa Output\obj\project\ble_all_roles\bsp\bsp_io_key.o
                0x00000000100069aa                bsp_io_key_init
 .text.bsp_key_init
                0x00000000100069b4       0x28 Output\obj\project\ble_all_roles\bsp\bsp_key.o
                0x00000000100069b4                bsp_key_init
 .text.bsp_led_init
                0x00000000100069dc       0x26 Output\obj\project\ble_all_roles\bsp\bsp_led.o
                0x00000000100069dc                bsp_led_init
 .text.bsp_led_process
                0x0000000010006a02       0x36 Output\obj\project\ble_all_roles\bsp\bsp_led.o
                0x0000000010006a02                bsp_led_process
 .text.bsp.param
                0x0000000010006a38       0x18 Output\obj\project\ble_all_roles\bsp\bsp_param.o
                0x0000000010006a38                bsp_param_init
                0x0000000010006a44                bsp_param_write
                0x0000000010006a48                bsp_param_read
                0x0000000010006a4c                bsp_param_sync
 .text.bsp_saradc_init
                0x0000000010006a50       0x38 Output\obj\project\ble_all_roles\bsp\bsp_saradc.o
                0x0000000010006a50                bsp_saradc_init
 .text.bsp_vbat_filter
                0x0000000010006a88       0x62 Output\obj\project\ble_all_roles\bsp\bsp_saradc_vbat.o
                0x0000000010006a88                bsp_vbat_filter
 .text.bsp_vbat_detect_init
                0x0000000010006aea       0x3c Output\obj\project\ble_all_roles\bsp\bsp_saradc_vbat.o
                0x0000000010006aea                bsp_vbat_detect_init
 .text.sys_ram_info_dump
                0x0000000010006b26       0x96 Output\obj\project\ble_all_roles\bsp\bsp_sys.o
                0x0000000010006b26                sys_ram_info_dump
 .text.power_on_check
                0x0000000010006bbc       0x92 Output\obj\project\ble_all_roles\bsp\bsp_sys.o
                0x0000000010006bbc                power_on_check
 .text.bsp.sys.init
                0x0000000010006c4e       0xc4 Output\obj\project\ble_all_roles\bsp\bsp_sys.o
                0x0000000010006c4e                bsp_sys_init
 .text.bsp_periph_init
                0x0000000010006d12       0x16 Output\obj\project\ble_all_roles\bsp\bsp_sys.o
                0x0000000010006d12                bsp_periph_init
 .text.bsp_uart_debug_init
                0x0000000010006d28       0x7c Output\obj\project\ble_all_roles\bsp\bsp_uart_debug.o
                0x0000000010006d28                bsp_uart_debug_init
 .text.startup.main
                0x0000000010006da4       0x58 Output\obj\project\ble_all_roles\main.o
                0x0000000010006da4                main
 .text.prod_test_init
                0x0000000010006dfc        0x2 Output\obj\project\ble_all_roles\production_test\prod_test.o
                0x0000000010006dfc                prod_test_init
 .text.mem_heap_size_get
                0x0000000010006dfe        0x8 Output\obj\project\ble_all_roles\strong_symbol.o
                0x0000000010006dfe                mem_heap_size_get
 .text.thread_cfg_get
                0x0000000010006e06        0xa Output\obj\project\ble_all_roles\strong_symbol.o
                0x0000000010006e06                thread_cfg_get
 .text.thread_create_callback
                0x0000000010006e10        0x4 Output\obj\project\ble_all_roles\strong_symbol.o
                0x0000000010006e10                thread_create_callback
 .text.ble_get_local_bd_addr
                0x0000000010006e14       0x14 Output\obj\project\ble_all_roles\strong_symbol.o
                0x0000000010006e14                ble_get_local_bd_addr
 .text.bt_rf_get_param
                0x0000000010006e28       0x44 Output\obj\project\ble_all_roles\strong_symbol.o
                0x0000000010006e28                bt_rf_get_param
 .text.bt_rf_get_tx_pwr
                0x0000000010006e6c       0x1a Output\obj\project\ble_all_roles\strong_symbol.o
                0x0000000010006e6c                bt_rf_get_tx_pwr
 .text.xosc_get_xcfg
                0x0000000010006e86       0x20 Output\obj\project\ble_all_roles\strong_symbol.o
                0x0000000010006e86                xosc_get_xcfg
 .text.param_xosc_read
                0x0000000010006ea6        0x8 Output\obj\project\ble_all_roles\strong_symbol.o
                0x0000000010006ea6                param_xosc_read
 .text.param_xosc_write
                0x0000000010006eae       0x14 Output\obj\project\ble_all_roles\strong_symbol.o
                0x0000000010006eae                param_xosc_write
 .text.hci_fcc_init
                0x0000000010006ec2        0x2 Output\obj\project\ble_all_roles\strong_symbol.o
                0x0000000010006ec2                hci_fcc_init
 .text.bt_uart_isr
                0x0000000010006ec4        0x4 Output\obj\project\ble_all_roles\strong_symbol.o
                0x0000000010006ec4                bt_uart_isr
 .text.sys_clk_change_callback
                0x0000000010006ec8       0x10 Output\obj\project\ble_all_roles\strong_symbol.o
                0x0000000010006ec8                sys_clk_change_callback
 .text.uart_debug_init_callback
                0x0000000010006ed8        0x4 Output\obj\project\ble_all_roles\strong_symbol.o
                0x0000000010006ed8                uart_debug_init_callback
 .text.ble_get_link_info
                0x0000000010006edc        0x6 Output\obj\project\ble_all_roles\strong_symbol.o
                0x0000000010006edc                ble_get_link_info
 .text.ble_put_link_info
                0x0000000010006ee2       0x10 Output\obj\project\ble_all_roles\strong_symbol.o
                0x0000000010006ee2                ble_put_link_info
 .text.ble_mtu_exchange_enabled
                0x0000000010006ef2        0x4 Output\obj\project\ble_all_roles\strong_symbol.o
                0x0000000010006ef2                ble_mtu_exchange_enabled
 .text.ble_sm_send_security_req_time_get
                0x0000000010006ef6        0x6 Output\obj\project\ble_all_roles\strong_symbol.o
                0x0000000010006ef6                ble_sm_send_security_req_time_get
 .text.ble_sm_always_accept_ltk_req
                0x0000000010006efc        0x4 Output\obj\project\ble_all_roles\strong_symbol.o
                0x0000000010006efc                ble_sm_always_accept_ltk_req
 .text.ble_sm_pairing_support
                0x0000000010006f00        0x4 Output\obj\project\ble_all_roles\strong_symbol.o
                0x0000000010006f00                ble_sm_pairing_support
 .text.ble_disconnected_restart_adv
                0x0000000010006f04        0x4 Output\obj\project\ble_all_roles\strong_symbol.o
                0x0000000010006f04                ble_disconnected_restart_adv
 .text.ble_rx_exit_sleep
                0x0000000010006f08        0x4 Output\obj\project\ble_all_roles\strong_symbol.o
                0x0000000010006f08                ble_rx_exit_sleep
 .text.ble_feature_exchange_enabled
                0x0000000010006f0c        0x4 Output\obj\project\ble_all_roles\strong_symbol.o
                0x0000000010006f0c                ble_feature_exchange_enabled
 .text.ble_length_request_enabled
                0x0000000010006f10        0x4 Output\obj\project\ble_all_roles\strong_symbol.o
                0x0000000010006f10                ble_length_request_enabled
 .text.ble_phy_update_enable
                0x0000000010006f14        0x4 Output\obj\project\ble_all_roles\strong_symbol.o
                0x0000000010006f14                ble_phy_update_enable
 .text.cm_loadpage
                0x0000000010006f18       0xb4 ..\..\libs\cpu\libplatform.a(cm.o)
 .text.cm_next_freepage
                0x0000000010006fcc       0x42 ..\..\libs\cpu\libplatform.a(cm.o)
 .text.cm_loadparam
                0x000000001000700e        0x4 ..\..\libs\cpu\libplatform.a(cm.o)
                0x000000001000700e                cm_loadparam
 .text.cm_factory
                0x0000000010007012        0xa ..\..\libs\cpu\libplatform.a(cm.o)
                0x0000000010007012                cm_factory
 .text.cm_addr_check
                0x000000001000701c        0x4 ..\..\libs\cpu\libplatform.a(cm.o)
                0x000000001000701c                cm_addr_check
 .text.cm_writepage
                0x0000000010007020       0x2a ..\..\libs\cpu\libplatform.a(cm.o)
 .text.cm_movepage
                0x000000001000704a       0x50 ..\..\libs\cpu\libplatform.a(cm.o)
 .text.cm_erase
                0x000000001000709a       0x1e ..\..\libs\cpu\libplatform.a(cm.o)
 .text.cm_release
                0x00000000100070b8       0xf8 ..\..\libs\cpu\libplatform.a(cm.o)
 .text.cm_savepage
                0x00000000100071b0       0xb6 ..\..\libs\cpu\libplatform.a(cm.o)
 .text.cm_check_loadpage
                0x0000000010007266       0xb0 ..\..\libs\cpu\libplatform.a(cm.o)
 .text.cm_sync  0x0000000010007316       0x3e ..\..\libs\cpu\libplatform.a(cm.o)
                0x0000000010007316                cm_sync
 .text.cm_read  0x0000000010007354       0x44 ..\..\libs\cpu\libplatform.a(cm.o)
                0x0000000010007354                cm_read
 .text.cm_write
                0x0000000010007398       0x5e ..\..\libs\cpu\libplatform.a(cm.o)
                0x0000000010007398                cm_write
 .text.cm_init  0x00000000100073f6      0x1be ..\..\libs\cpu\libplatform.a(cm.o)
                0x00000000100073f6                cm_init
 .text.xcfg_init
                0x00000000100075b4       0x54 ..\..\libs\cpu\libplatform.a(xcfg.o)
                0x00000000100075b4                xcfg_init
 .text.platform_main
                0x0000000010007608      0x1ea ..\..\libs\cpu\libplatform.a(main.o)
                0x0000000010007608                platform_main
 .text.main_startup
                0x00000000100077f2        0xe ..\..\libs\cpu\libplatform.a(main.o)
                0x00000000100077f2                main_startup
 .text.sys_irq_init
                0x0000000010007800       0x8e ..\..\libs\cpu\libplatform.a(interrupt.o)
                0x0000000010007800                sys_irq_init
 .text.soft_irq_init
                0x000000001000788e       0x3c ..\..\libs\cpu\libplatform.a(interrupt.o)
                0x000000001000788e                soft_irq_init
 .text.bthw_irq_init
                0x00000000100078ca       0x12 ..\..\libs\cpu\libplatform.a(interrupt.o)
                0x00000000100078ca                bthw_irq_init
 .text.sys_timer_init
                0x00000000100078dc       0x84 ..\..\libs\cpu\libplatform.a(interrupt.o)
                0x00000000100078dc                sys_timer_init
 .text.thread_btstack_create
                0x0000000010007960       0x8a ..\..\libs\cpu\libplatform.a(startup.o)
                0x0000000010007960                thread_btstack_create
 .text.thread_main_entry
                0x00000000100079ea       0x8a ..\..\libs\cpu\libplatform.a(startup.o)
 .text.startup.init
                0x0000000010007a74      0x10a ..\..\libs\cpu\libplatform.a(startup.o)
                0x0000000010007a74                platform_init
                0x0000000010007a7c                sys_startup
 .text.bt_set_timer_enable
                0x0000000010007b7e       0x18 ..\..\libs\cpu\libplatform.a(startup.o)
                0x0000000010007b7e                bt_set_timer_enable
 .text.sys_set_tmr_enable
                0x0000000010007b96       0x22 ..\..\libs\cpu\libplatform.a(startup.o)
                0x0000000010007b96                sys_set_tmr_enable
 .text.sys_hook_init
                0x0000000010007bb8        0x2 ..\..\libs\cpu\libplatform.a(sys_hook.o)
                0x0000000010007bb8                sys_hook_init
 .text.pll0_vco_band_trimming
                0x0000000010007bba       0x5a ..\..\libs\cpu\libplatform.a(pll.o)
                0x0000000010007bba                pll0_vco_band_trimming
 .text.pll0_init
                0x0000000010007c14       0xd6 ..\..\libs\cpu\libplatform.a(pll.o)
                0x0000000010007c14                pll0_init
 .text.pll0_disable
                0x0000000010007cea       0x48 ..\..\libs\cpu\libplatform.a(pll.o)
                0x0000000010007cea                pll0_disable
 .text.pmu_set_buck_mode
                0x0000000010007d32       0x9e ..\..\libs\cpu\libplatform.a(pmu.o)
                0x0000000010007d32                pmu_set_buck_mode
 .text.pmu_voltage_configure
                0x0000000010007dd0       0x6a ..\..\libs\cpu\libplatform.a(pmu.o)
                0x0000000010007dd0                pmu_voltage_configure
 .text.pmu_init
                0x0000000010007e3a      0x308 ..\..\libs\cpu\libplatform.a(pmu.o)
                0x0000000010007e3a                pmu_init
 .text.sleep.rc
                0x0000000010008142       0x3e ..\..\libs\cpu\libplatform.a(rc.o)
                0x0000000010008142                rc_sleep_get_freqcnt
 .text.debug_set
                0x0000000010008180       0x1a ..\..\libs\cpu\libplatform.a(debug.o)
                0x0000000010008180                debug_set
 .text.ota_pack_is_update_success
                0x000000001000819a        0x8 ..\..\libs\cpu\libplatform.a(fot_pack.o)
                0x000000001000819a                ota_pack_is_update_success
 .text.bsp.key.init
                0x00000000100081a2       0x38 ..\..\libs\cpu\libplatform.a(key.o)
                0x00000000100081a2                multiple_key_init
 .text.lock_init
                0x00000000100081da       0x1c ..\..\libs\cpu\libplatform.a(lock.o)
                0x00000000100081da                lock_init
 .text.patch_init
                0x00000000100081f6       0x1e ..\..\libs\cpu\libplatform.a(patch.o)
                0x00000000100081f6                patch_init
 .text.udivmoddi4
                0x0000000010008214       0x96 ..\..\libs\cpu\libplatform.a(sys.o)
 .text.sys_rst_init
                0x00000000100082aa       0x7c ..\..\libs\cpu\libplatform.a(sys.o)
                0x00000000100082aa                sys_rst_init
 .text.sys_rst_dump
                0x0000000010008326       0x86 ..\..\libs\cpu\libplatform.a(sys.o)
                0x0000000010008326                sys_rst_dump
 .text.rc2m_clk_nhz_cal
                0x00000000100083ac      0x100 ..\..\libs\cpu\libplatform.a(sys.o)
                0x00000000100083ac                rc2m_clk_nhz_cal
 .text.rc2m_clk_nhz_get
                0x00000000100084ac       0x10 ..\..\libs\cpu\libplatform.a(sys.o)
                0x00000000100084ac                rc2m_clk_nhz_get
 .text.sys_get_rand_key_init
                0x00000000100084bc        0xa ..\..\libs\cpu\libplatform.a(sys.o)
                0x00000000100084bc                sys_get_rand_key_init
 .text.xosc_init
                0x00000000100084c6       0x92 ..\..\libs\cpu\libplatform.a(sys.o)
                0x00000000100084c6                xosc_init
 .text.bsp.param
                0x0000000010008558       0x26 ..\..\libs\cpu\libplatform.a(sys.o)
                0x0000000010008558                bt_save_xosc_cap
 .text.bt_get_xosc_cap
                0x000000001000857e        0xc ..\..\libs\cpu\libplatform.a(sys.o)
                0x000000001000857e                bt_get_xosc_cap
 .text.bt_set_xosc_cap
                0x000000001000858a       0x18 ..\..\libs\cpu\libplatform.a(sys.o)
                0x000000001000858a                bt_set_xosc_cap
 .text.bt_adj_xosc_cap
                0x00000000100085a2       0x72 ..\..\libs\cpu\libplatform.a(sys.o)
                0x00000000100085a2                bt_adj_xosc_cap
 .text.__udivdi3
                0x0000000010008614        0x6 ..\..\libs\cpu\libplatform.a(sys.o)
                0x0000000010008614                __udivdi3
 .text.sys_clk_cacl_curr
                0x000000001000861a       0x28 ..\..\libs\cpu\libplatform.a(sys_clk.o)
 *fill*         0x0000000010008642      0x1be 
 .text.set_sys_clk_do
                0x0000000010008800      0x1ea ..\..\libs\cpu\libplatform.a(sys_clk.o)
                0x0000000010008800                set_sys_clk_do
 .text.sys_clk  0x00000000100089ea      0x1ec ..\..\libs\cpu\libplatform.a(sys_clk.o)
                0x00000000100089ea                sys_clk_get_cur
                0x00000000100089f2                sys_clk_set_do
 .text.sys_clk_nhz_get
                0x0000000010008bd6       0x5c ..\..\libs\cpu\libplatform.a(sys_clk.o)
                0x0000000010008bd6                sys_clk_nhz_get
 .text.sys_clk_get
                0x0000000010008c32        0x8 ..\..\libs\cpu\libplatform.a(sys_clk.o)
                0x0000000010008c32                sys_clk_get
 .text.sys_clk_set
                0x0000000010008c3a       0x60 ..\..\libs\cpu\libplatform.a(sys_clk.o)
                0x0000000010008c3a                sys_clk_set
 *fill*         0x0000000010008c9a        0x2 
 .text.sys_clk.table
                0x0000000010008c9c       0x1a ..\..\libs\cpu\libplatform.a(sys_clk.o)
                0x0000000010008c9c                sysclk_info_tbl
 .text.charge_const_curr_trim
                0x0000000010008cb6       0x7a ..\..\libs\cpu\libplatform.a(voltage_trim.o)
                0x0000000010008cb6                charge_const_curr_trim
 .text.charge_cutoff_curr_trim
                0x0000000010008d30       0x6e ..\..\libs\cpu\libplatform.a(voltage_trim.o)
                0x0000000010008d30                charge_cutoff_curr_trim
 .text.voltage.trim
                0x0000000010008d9e      0x1a2 ..\..\libs\cpu\libplatform.a(voltage_trim.o)
                0x0000000010008d9e                bt_get_ft_trim_value
                0x0000000010008de8                voltage_trim_value_init
 .text.xosc_24m_div_get
                0x0000000010008f40        0x4 ..\..\libs\cpu\libplatform.a(weak_symbol.o)
                0x0000000010008f40                xosc_24m_div_get
 .text.rf_ft_trim_dig_gain_adjust
                0x0000000010008f44        0x4 ..\..\libs\cpu\libplatform.a(weak_symbol.o)
                0x0000000010008f44                rf_ft_trim_dig_gain_adjust
 .text          0x0000000010008f48       0x78 ..\..\libs\ble\libbtstack_all_roles.a(txpkt.o)
                0x0000000010008f48                txpkt_init
 *fill*         0x0000000010008fc0       0x40 
 .text.txpkt.flush
                0x0000000010009000       0x82 ..\..\libs\ble\libbtstack_all_roles.a(txpkt.o)
                0x0000000010009000                txpkt_flush
 .text          0x0000000010009082      0xa56 ..\..\libs\ble\libbtstack_all_roles.a(sm.o)
 .text.sm.aes   0x0000000010009ad8       0x3a ..\..\libs\ble\libbtstack_all_roles.a(sm.o)
 .text.sm.get_handle
                0x0000000010009b12       0x16 ..\..\libs\ble\libbtstack_all_roles.a(sm.o)
 .text.sm.rau_run
                0x0000000010009b28       0x90 ..\..\libs\ble\libbtstack_all_roles.a(sm.o)
 .text.gap.trig
                0x0000000010009bb8       0x18 ..\..\libs\ble\libbtstack_all_roles.a(sm.o)
 .text.gap.rau.update
                0x0000000010009bd0       0x46 ..\..\libs\ble\libbtstack_all_roles.a(sm.o)
                0x0000000010009bf6                gap_random_address_update
 .text.sm.is_null
                0x0000000010009c16       0x1c ..\..\libs\ble\libbtstack_all_roles.a(sm.o)
                0x0000000010009c16                sm_is_null
 .text.sm.request
                0x0000000010009c32       0x9c ..\..\libs\ble\libbtstack_all_roles.a(sm.o)
                0x0000000010009cbe                sm_send_security_request
 .text.sm.hdl   0x0000000010009cce        0xc ..\..\libs\ble\libbtstack_all_roles.a(sm.o)
                0x0000000010009cce                sm_add_event_handler
 .text.sm.er    0x0000000010009cda        0xe ..\..\libs\ble\libbtstack_all_roles.a(sm.o)
                0x0000000010009cda                sm_set_er
 .text.sm.ir    0x0000000010009ce8        0xe ..\..\libs\ble\libbtstack_all_roles.a(sm.o)
                0x0000000010009ce8                sm_set_ir
 .text.stack.ble.sm
                0x0000000010009cf6      0x13c ..\..\libs\ble\libbtstack_all_roles.a(sm.o)
                0x0000000010009cf6                ble_sm_init
 .text.sm.deinit
                0x0000000010009e32        0x8 ..\..\libs\ble\libbtstack_all_roles.a(sm.o)
                0x0000000010009e32                sm_deinit
 .text.sm.key_size
                0x0000000010009e3a       0x20 ..\..\libs\ble\libbtstack_all_roles.a(sm.o)
                0x0000000010009e3a                sm_encryption_key_size
 .text.sm.auth  0x0000000010009e5a       0x20 ..\..\libs\ble\libbtstack_all_roles.a(sm.o)
                0x0000000010009e5a                sm_authenticated
 .text.sm.auth.sta
                0x0000000010009e7a       0x24 ..\..\libs\ble\libbtstack_all_roles.a(sm.o)
                0x0000000010009e7a                sm_authorization_state
 .text.sm.pairing
                0x0000000010009e9e       0x78 ..\..\libs\ble\libbtstack_all_roles.a(sm.o)
                0x0000000010009e9e                sm_request_pairing
 .text.sm.confirm
                0x0000000010009f16       0x26 ..\..\libs\ble\libbtstack_all_roles.a(sm.o)
                0x0000000010009f16                sm_just_works_confirm
 .text.sm.passkey.get
                0x0000000010009f3c       0x20 ..\..\libs\ble\libbtstack_all_roles.a(sm.o)
                0x0000000010009f3c                sm_passkey_input_get
 .text.sm.passkey.input
                0x0000000010009f5c       0x3e ..\..\libs\ble\libbtstack_all_roles.a(sm.o)
                0x0000000010009f5c                sm_passkey_input
 .text.sm.index
                0x0000000010009f9a       0x14 ..\..\libs\ble\libbtstack_all_roles.a(sm.o)
                0x0000000010009f9a                sm_le_device_index
 .text.gap.rau.mode
                0x0000000010009fae       0x54 ..\..\libs\ble\libbtstack_all_roles.a(sm.o)
                0x0000000010009fae                gap_random_address_set_mode
 .text.gap.addr
                0x000000001000a002        0x8 ..\..\libs\ble\libbtstack_all_roles.a(sm.o)
                0x000000001000a002                gap_random_address_get_mode
 *fill*         0x000000001000a00a        0x2 
 .text.sm.run   0x000000001000a00c      0xa44 ..\..\libs\ble\libbtstack_all_roles.a(sm.o)
 .text.sm.pdu   0x000000001000aa50      0x350 ..\..\libs\ble\libbtstack_all_roles.a(sm.o)
 *fill*         0x000000001000ada0        0x0 
 .text.sm.event
                0x000000001000ada0      0x946 ..\..\libs\ble\libbtstack_all_roles.a(sm.o)
 .text.gap.rau_set
                0x000000001000b6e6       0x28 ..\..\libs\ble\libbtstack_all_roles.a(sm.o)
                0x000000001000b6e6                gap_random_address_set
 .text.sm.addr  0x000000001000b70e        0xc ..\..\libs\ble\libbtstack_all_roles.a(sm.o)
                0x000000001000b70e                gap_random_address_get
 .text.gap.adv  0x000000001000b71a        0x4 ..\..\libs\ble\libbtstack_all_roles.a(sm.o)
                0x000000001000b71a                gap_advertisements_set_params
 .text.sm.reconnect
                0x000000001000b71e       0x48 ..\..\libs\ble\libbtstack_all_roles.a(sm.o)
                0x000000001000b71e                gap_reconnect_security_setup_active
 .text          0x000000001000b766       0x34 ..\..\libs\ble\libbtstack_all_roles.a(le_device_db_memory.o)
                0x000000001000b766                le_device_db_count
 .text.le.db.max
                0x000000001000b79a        0x4 ..\..\libs\ble\libbtstack_all_roles.a(le_device_db_memory.o)
                0x000000001000b79a                ble_bonding_info_max_count
 .text.le.db.write
                0x000000001000b79e       0x1a ..\..\libs\ble\libbtstack_all_roles.a(le_device_db_memory.o)
                0x000000001000b79e                le_device_db_info_save_for_index
 .text.le.db.read
                0x000000001000b7b8       0x1a ..\..\libs\ble\libbtstack_all_roles.a(le_device_db_memory.o)
                0x000000001000b7b8                le_device_db_info_load_for_index
 .text.le.db.init
                0x000000001000b7d2       0x58 ..\..\libs\ble\libbtstack_all_roles.a(le_device_db_memory.o)
                0x000000001000b7d2                le_device_db_init
 .text.le.db.remove
                0x000000001000b82a       0x8a ..\..\libs\ble\libbtstack_all_roles.a(le_device_db_memory.o)
                0x000000001000b82a                le_device_db_remove
 .text.le.db.add
                0x000000001000b8b4       0xb2 ..\..\libs\ble\libbtstack_all_roles.a(le_device_db_memory.o)
                0x000000001000b8b4                le_device_db_add
 .text.le.db    0x000000001000b966      0x158 ..\..\libs\ble\libbtstack_all_roles.a(le_device_db_memory.o)
                0x000000001000b966                le_device_db_info
                0x000000001000b9c0                le_device_db_encryption_set
                0x000000001000ba28                le_device_db_encryption_get
 .text          0x000000001000babe       0x24 ..\..\libs\ble\libbtstack_all_roles.a(gatt_server.o)
                0x000000001000babe                att_server_send_func_get
 .text.ble.indicate
                0x000000001000bae2       0xa0 ..\..\libs\ble\libbtstack_all_roles.a(gatt_server.o)
                0x000000001000bae2                ble_send_indicate_packet
                0x000000001000bb22                ble_indicate_for_handle
 *fill*         0x000000001000bb82        0x2 
 .text          0x000000001000bb84     0x1ace ..\..\libs\ble\libbtstack_all_roles.a(gatt_client.o)
                0x000000001000c0ee                att_client_register_handler
                0x000000001000c0fa                gatt_client_init
                0x000000001000c2a6                gatt_client_is_ready
                0x000000001000c2be                gatt_client_get_mtu
                0x000000001000c826                gatt_client_listen_for_characteristic_value_updates
                0x000000001000c844                gatt_client_write_value_of_characteristic_without_response
                0x000000001000c8de                gatt_client_write_value_of_characteristic
                0x000000001000c964                ble_service_query_result_get_service
                0x000000001000c96c                ble_characteristic_query_result_get_characteristic
                0x000000001000c974                ble_client_write_client_characteristic_configuration
                0x000000001000c9ee                att_client_send_func_get
                0x000000001000d540                gatt_client_read_value_of_characteristic_using_value_handle
                0x000000001000d5e2                gatt_client_write_client_characteristic_configuration
 .text.client.get_context
                0x000000001000d652       0x18 ..\..\libs\ble\libbtstack_all_roles.a(gatt_client.o)
                0x000000001000d652                gatt_client_get_context_for_handle
 .text.client.request_can_send
                0x000000001000d66a       0x28 ..\..\libs\ble\libbtstack_all_roles.a(gatt_client.o)
                0x000000001000d66a                att_client_request_can_send_now_event
 .text.client.write_req
                0x000000001000d692       0x6c ..\..\libs\ble\libbtstack_all_roles.a(gatt_client.o)
                0x000000001000d692                att_write_request
                0x000000001000d6de                ble_write_req_for_character
 *fill*         0x000000001000d6fe        0x2 
 .text.sm.client
                0x000000001000d700      0x15c ..\..\libs\ble\libbtstack_all_roles.a(gatt_client.o)
                0x000000001000d700                ble_sm_client_event_do
 .text.client.deserialize_service
                0x000000001000d85c       0x48 ..\..\libs\ble\libbtstack_all_roles.a(gatt_client.o)
                0x000000001000d85c                gatt_client_deserialize_service
 .text.client.deserialize_characteristic
                0x000000001000d8a4       0x58 ..\..\libs\ble\libbtstack_all_roles.a(gatt_client.o)
                0x000000001000d8a4                gatt_client_deserialize_characteristic
 .text.client.send_req
                0x000000001000d8fc       0x16 ..\..\libs\ble\libbtstack_all_roles.a(gatt_client.o)
                0x000000001000d8fc                btstack_ble_client_send_req
 .text.client.send
                0x000000001000d912       0xa8 ..\..\libs\ble\libbtstack_all_roles.a(gatt_client.o)
                0x000000001000d912                att_event_client_send
 .text.client.find_services
                0x000000001000d9ba       0x48 ..\..\libs\ble\libbtstack_all_roles.a(gatt_client.o)
                0x000000001000d9ba                gatt_client_discover_primary_services
                0x000000001000d9f6                ble_client_discover_primary_services
 .text.client.find_character
                0x000000001000da02       0x54 ..\..\libs\ble\libbtstack_all_roles.a(gatt_client.o)
                0x000000001000da02                gatt_client_discover_characteristics_for_service
                0x000000001000da48                ble_client_discover_characteristics_for_service
 .text.client.read_long_value_offset
                0x000000001000da56       0x3a ..\..\libs\ble\libbtstack_all_roles.a(gatt_client.o)
                0x000000001000da56                gatt_client_read_long_value_of_characteristic_using_value_handle_with_offset
 .text          0x000000001000da90      0x1c4 ..\..\libs\ble\libbtstack_all_roles.a(att_server.o)
                0x000000001000dbac                att_server_handler_list_init
                0x000000001000dbb4                att_server_mtu_exch_complete_ind
                0x000000001000dbc4                att_server_can_send_packet_now
 *fill*         0x000000001000dc54        0x0 
 .text.sm.server
                0x000000001000dc54      0x1e2 ..\..\libs\ble\libbtstack_all_roles.a(att_server.o)
                0x000000001000dc54                ble_sm_server_event_do
 .text.server.register_service
                0x000000001000de36       0x2a ..\..\libs\ble\libbtstack_all_roles.a(att_server.o)
                0x000000001000de36                att_server_register_service_handler
 .text.server.init
                0x000000001000de60       0x7a ..\..\libs\ble\libbtstack_all_roles.a(att_server.o)
                0x000000001000de60                att_server_init
 .text.server.packet_handler
                0x000000001000deda      0x1a4 ..\..\libs\ble\libbtstack_all_roles.a(att_server.o)
 .text.att.event_handler
                0x000000001000e07e      0x164 ..\..\libs\ble\libbtstack_all_roles.a(att_server.o)
 .text.server.indicate
                0x000000001000e1e2       0x90 ..\..\libs\ble\libbtstack_all_roles.a(att_server.o)
                0x000000001000e1e2                att_server_indicate
 .text          0x000000001000e272      0x1ce ..\..\libs\ble\libbtstack_all_roles.a(att_dispatch.o)
                0x000000001000e354                att_dispatch_connected_event
                0x000000001000e3b2                att_dispatch_disconnected_event
                0x000000001000e3da                att_dispatch_connect_param_update_event
                0x000000001000e408                att_dispatch_encryption_change_event
                0x000000001000e438                att_dispatch_sm_event
 .text.att.register_client
                0x000000001000e440       0x14 ..\..\libs\ble\libbtstack_all_roles.a(att_dispatch.o)
                0x000000001000e440                att_dispatch_register_client
 .text.att.is_register_client
                0x000000001000e454        0xc ..\..\libs\ble\libbtstack_all_roles.a(att_dispatch.o)
                0x000000001000e454                att_dispatch_client_is_register
 .text.att.register_server
                0x000000001000e460       0x14 ..\..\libs\ble\libbtstack_all_roles.a(att_dispatch.o)
                0x000000001000e460                att_dispatch_register_server
 .text.att.dispatch
                0x000000001000e474        0x6 ..\..\libs\ble\libbtstack_all_roles.a(att_dispatch.o)
                0x000000001000e474                att_dispatch_can_send_now
 .text.att.dispatch_client
                0x000000001000e47a       0x12 ..\..\libs\ble\libbtstack_all_roles.a(att_dispatch.o)
                0x000000001000e47a                att_dispatch_client_request_can_send_now_event
 .text.att.client_mtu
                0x000000001000e48c       0x2a ..\..\libs\ble\libbtstack_all_roles.a(att_dispatch.o)
                0x000000001000e48c                att_dispatch_client_mtu_exchanged
 .text.att.server_mtu
                0x000000001000e4b6       0x2a ..\..\libs\ble\libbtstack_all_roles.a(att_dispatch.o)
                0x000000001000e4b6                att_dispatch_server_mtu_exchanged
 *fill*         0x000000001000e4e0        0x0 
 .text          0x000000001000e4e0      0xddc ..\..\libs\ble\libbtstack_all_roles.a(att_db.o)
                0x000000001000e6da                att_uuid_for_handle
                0x000000001000e704                att_set_db
                0x000000001000e70c                att_set_read_callback
                0x000000001000e714                att_set_write_callback
                0x000000001000e71c                handle_exchange_mtu_request
                0x000000001000e744                att_clear_transaction_queue
                0x000000001000e760                att_prepare_handle_value_indication
                0x000000001000e79e                att_handle_request
                0x000000001000f168                gatt_server_get_get_handle_range_for_service_with_uuid16
                0x000000001000f1ee                gatt_server_get_value_handle_for_characteristic_with_uuid16
                0x000000001000f230                gatt_server_get_client_configuration_handle_for_characteristic_with_uuid16
 .text.att.mtu_request
                0x000000001000f2bc       0x38 ..\..\libs\ble\libbtstack_all_roles.a(att_db.o)
                0x000000001000f2bc                att_exchange_mtu_request
 .text.att_server.mtu_rsp
                0x000000001000f2f4       0x2a ..\..\libs\ble\libbtstack_all_roles.a(att_db.o)
                0x000000001000f2f4                handle_exchange_mtu_response
 .text          0x000000001000f31e      0x134 ..\..\libs\ble\libbtstack_all_roles.a(btstack_api.o)
                0x000000001000f31e                btstack_ble_disable_ext_adv
                0x000000001000f320                btstack_ble_enable_adv
                0x000000001000f326                btstack_ble_disable_adv
                0x000000001000f32c                btstack_ble_set_adv_param
                0x000000001000f380                btstack_ble_enable_scan
                0x000000001000f384                btstack_ble_disable_scan
                0x000000001000f388                btstack_ble_set_scan_param
                0x000000001000f38c                btstack_ble_conn_by_addr
                0x000000001000f3c2                btstack_ble_conn_cancel
                0x000000001000f3c6                btstack_ble_sm_passkey_input
                0x000000001000f3dc                btstack_ble_sm_send_security_request
                0x000000001000f3e0                btstack_ble_ctrl_connection_latency
                0x000000001000f3ec                btstack_ble_set_random_static_addr
                0x000000001000f3f6                btstack_ble_update_random_addr
                0x000000001000f3fa                btstack_ble_single_tone_mode_enter
                0x000000001000f410                btstack_ctl_api
                0x000000001000f428                btstack_ble_rmv_dev_from_white_list
                0x000000001000f42a                btstack_ble_enable_ext_adv
                0x000000001000f42c                btstack_ble_set_ext_adv_data
                0x000000001000f42e                btstack_ble_set_ext_adv_param
                0x000000001000f430                btstack_ble_ext_conn_by_addr
                0x000000001000f432                btstack_ble_rslv_enable
                0x000000001000f434                btstack_ble_rslv_renew_to_set
                0x000000001000f436                btstack_ble_add_dev_to_ral_list
                0x000000001000f438                btstack_ble_rmv_dev_from_ral_list
                0x000000001000f43a                btstack_ble_add_dev_to_white_list
                0x000000001000f43c                btstack_var_init
                0x000000001000f44e                btstack_ble_get_conn_rssi
 .text.stack.sleep
                0x000000001000f452       0x24 ..\..\libs\ble\libbtstack_all_roles.a(btstack_api.o)
                0x000000001000f452                btstack_exit_sleep
                0x000000001000f45e                btstack_enter_sleep
 .text.stack.api
                0x000000001000f476       0x34 ..\..\libs\ble\libbtstack_all_roles.a(btstack_api.o)
                0x000000001000f476                btstack_off
                0x000000001000f496                bt_init
 .text.stack.setup
                0x000000001000f4aa       0x4e ..\..\libs\ble\libbtstack_all_roles.a(btstack_api.o)
                0x000000001000f4aa                btstack_setup
 .text.ble.hci  0x000000001000f4f8       0xfe ..\..\libs\ble\libbtstack_all_roles.a(btstack_api.o)
                0x000000001000f4f8                btstack_ble_set_adv_interval
                0x000000001000f520                btstack_ble_set_adv_data
                0x000000001000f530                btstack_ble_set_scan_rsp_data
                0x000000001000f540                btstack_ble_disconnect
                0x000000001000f55a                btstack_ble_update_conn_param
                0x000000001000f5b0                btstack_ble_ll_update_conn_param
 .text.stack.api
                0x000000001000f5f6       0x5c ..\..\libs\ble\libbtstack_all_roles.a(bt_api.o)
                0x000000001000f5f6                bt_off
                0x000000001000f620                bt_setup
 .text.stack.sleep
                0x000000001000f652       0xb4 ..\..\libs\ble\libbtstack_all_roles.a(bt_api.o)
                0x000000001000f652                bt_enter_sleep
                0x000000001000f6ac                bt_exit_sleep
 .text.ble.api.conn.update
                0x000000001000f706       0x90 ..\..\libs\ble\libbtstack_all_roles.a(ble_api.o)
                0x000000001000f78c                ble_update_conn_param
 .text.ble.api.adv_dis
                0x000000001000f796        0xa ..\..\libs\ble\libbtstack_all_roles.a(ble_api.o)
                0x000000001000f796                ble_adv_dis
 .text.ble.api.adv_en
                0x000000001000f7a0        0xa ..\..\libs\ble\libbtstack_all_roles.a(ble_api.o)
                0x000000001000f7a0                ble_adv_en
 .text.ble.api.adv_is_en
                0x000000001000f7aa        0x4 ..\..\libs\ble\libbtstack_all_roles.a(ble_api.o)
                0x000000001000f7aa                ble_adv_is_en
 .text.ble.api.adv_interval.set
                0x000000001000f7ae       0x36 ..\..\libs\ble\libbtstack_all_roles.a(ble_api.o)
                0x000000001000f7ae                ble_set_adv_interval
 .text.ble.api.adv.adv_interval.get
                0x000000001000f7e4        0xe ..\..\libs\ble\libbtstack_all_roles.a(ble_api.o)
                0x000000001000f7e4                ble_get_adv_interval
 .text.ble.api.conn_param.get
                0x000000001000f7f2        0x4 ..\..\libs\ble\libbtstack_all_roles.a(ble_api.o)
                0x000000001000f7f2                ble_get_conn_param
 .text.ble.api.latency.dis
                0x000000001000f7f6       0x2c ..\..\libs\ble\libbtstack_all_roles.a(ble_api.o)
                0x000000001000f7f6                ble_disable_latency
 .text.ble.api.latency.en
                0x000000001000f822       0x2c ..\..\libs\ble\libbtstack_all_roles.a(ble_api.o)
                0x000000001000f822                ble_enable_latency
 .text.ble.api.adv_param.set
                0x000000001000f84e       0x3c ..\..\libs\ble\libbtstack_all_roles.a(ble_api.o)
                0x000000001000f84e                ble_set_adv_param
 .text.ble.api.scan.dis
                0x000000001000f88a        0xa ..\..\libs\ble\libbtstack_all_roles.a(ble_api.o)
                0x000000001000f88a                ble_scan_dis
 .text.ble.api.scan.en
                0x000000001000f894        0xa ..\..\libs\ble\libbtstack_all_roles.a(ble_api.o)
                0x000000001000f894                ble_scan_en
 .text.ble.api.scan.set
                0x000000001000f89e       0x2a ..\..\libs\ble\libbtstack_all_roles.a(ble_api.o)
                0x000000001000f89e                ble_set_scan_param
 .text.ble.api.conn_do
                0x000000001000f8c8       0x74 ..\..\libs\ble\libbtstack_all_roles.a(ble_api.o)
                0x000000001000f8c8                ble_connect_by_addr
 .text.ble.api.regist
                0x000000001000f93c        0x8 ..\..\libs\ble\libbtstack_all_roles.a(ble_api.o)
                0x000000001000f93c                ble_init_callback_register
                0x000000001000f940                ble_vs_tbox_init_callback_register
 .text          0x000000001000f944       0xaa ..\..\libs\ble\libbtstack_all_roles.a(rf.o)
                0x000000001000f944                rf_off
                0x000000001000f96e                rf_reset
                0x000000001000f970                rf_init
 .text.rf.tx_tone
                0x000000001000f9ee       0x4e ..\..\libs\ble\libbtstack_all_roles.a(rf.o)
                0x000000001000f9ee                rf_single_tone_enter
 *fill*         0x000000001000fa3c       0xc4 
 .text          0x000000001000fb00      0x822 ..\..\libs\ble\libbtstack_all_roles.a(ble_con.o)
                0x000000001000fb00                ble_con_evt_time_update_fix
                0x000000001000fc00                ble_con_start_do
                0x000000001000fc28                ble_con_start
                0x0000000010010100                ble_con_stop
                0x0000000010010180                ble_con_offset_get
                0x00000000100101c0                ble_con_pref_slave_latency_set
                0x00000000100101fc                ble_con_peer_sca_set
                0x0000000010010224                ble_event_start_hook_register
 .text.le.con   0x0000000010010322       0x7c ..\..\libs\ble\libbtstack_all_roles.a(ble_con.o)
                0x0000000010010322                ble_get_con_var
                0x000000001001032a                ble_get_con_rssi
                0x0000000010010340                ble_con_init
 .text          0x000000001001039e      0x150 ..\..\libs\ble\libbtstack_all_roles.a(bb_int.o)
                0x000000001001039e                bb_sleep_init
                0x00000000100103c6                bb_driver_init
 *fill*         0x00000000100104ee      0x112 
 .text.bb.aes   0x0000000010010600      0x1f4 ..\..\libs\ble\libbtstack_all_roles.a(bb_int.o)
                0x0000000010010600                bb_aes_encrypt
 .text          0x00000000100107f4      0x24c ..\..\libs\ble\libbtstack_all_roles.a(bb.o)
                0x00000000100107f4                bb_rand_init
                0x00000000100107fc                bb_get_heap_info
                0x000000001001080e                bb_var_init
                0x0000000010010816                bb_nanos_mem_init
                0x0000000010010860                bb_reset
                0x00000000100108de                bb_init
                0x00000000100109f0                bb_off
 .text          0x0000000010010a40       0x3a ..\..\libs\ble\libbtstack_all_roles.a(extern_ble.o)
                0x0000000010010a64                att_user_read_callback
                0x0000000010010a68                att_user_write_callback
                0x0000000010010a70                ble_sync_link_info
                0x0000000010010a76                hci_event_debug_en
 .text          0x0000000010010a7a       0x72 ..\..\libs\ble\libbtstack_all_roles.a(l2cap.o)
                0x0000000010010ad6                l2cap_register_packet_handler
                0x0000000010010ade                l2cap_max_le_mtu
 .text.stk.l2cap.txreq
                0x0000000010010aec       0xa6 ..\..\libs\ble\libbtstack_all_roles.a(l2cap.o)
 .text.stack.l2cap
                0x0000000010010b92      0x1ac ..\..\libs\ble\libbtstack_all_roles.a(l2cap.o)
                0x0000000010010cf0                l2cap_clear_pending_tx
 .text.stack.handler.l2cap
                0x0000000010010d3e      0x1a4 ..\..\libs\ble\libbtstack_all_roles.a(l2cap.o)
                0x0000000010010eda                l2cap_can_send_fixed_channel_packet_now
 .text.stack.l2cap.gap
                0x0000000010010ee2       0x20 ..\..\libs\ble\libbtstack_all_roles.a(l2cap.o)
                0x0000000010010ee2                gap_request_connection_parameter_update
 .text.stack.setup
                0x0000000010010f02       0x74 ..\..\libs\ble\libbtstack_all_roles.a(l2cap.o)
                0x0000000010010f02                l2cap_init
                0x0000000010010f52                l2cap_register_fixed_channel
 .text.stack.l2cap.connectionless
                0x0000000010010f76       0x44 ..\..\libs\ble\libbtstack_all_roles.a(l2cap.o)
                0x0000000010010f76                l2cap_send_connectionless
 .text.stack.setup
                0x0000000010010fba        0x2 ..\..\libs\ble\libbtstack_all_roles.a(hci_dump.o)
                0x0000000010010fba                hci_dump_open
 *fill*         0x0000000010010fbc        0x0 
 .text.stack.hci_send
                0x0000000010010fbc      0x28e ..\..\libs\ble\libbtstack_all_roles.a(hci_cmd.o)
                0x0000000010010fbc                hci_cmd_create_from_template
 .text          0x000000001001124a      0x49a ..\..\libs\ble\libbtstack_all_roles.a(hci.o)
                0x000000001001124a                hci_get_state
                0x0000000010011254                ble_get_scan_sta
                0x0000000010011260                hci_shutdown_connection
                0x0000000010011282                gap_le_get_own_address
                0x00000000100112be                hci_le_set_own_address_type
                0x00000000100112d2                le_handle_advertisement_report
                0x000000001001135c                hci_le_random_address_set
                0x0000000010011380                gap_ctrl_connection_parameter_latency
                0x00000000100113a8                gap_set_connection_parameters
                0x00000000100113c0                gap_set_ext_connection_parameters
                0x00000000100113e8                gap_get_connection_parameters
                0x0000000010011410                gap_get_connection_parameters_for_handle
                0x0000000010011446                gap_start_scan
                0x000000001001146c                gap_stop_scan
                0x000000001001148e                gap_set_scan_parameters
                0x00000000100114a2                gap_set_scan_parameters_do
                0x00000000100114ce                gap_set_connection_outgoing_addr
                0x00000000100114ec                gap_update_connection_parameters_do
                0x0000000010011524                gap_update_connection_parameters
                0x0000000010011558                gap_advertisements_set_data
                0x0000000010011570                gap_scan_response_set_data
                0x0000000010011588                gap_advertisements_enable
                0x00000000100115b8                gap_ext_advertisements_set_data
                0x00000000100115ba                gap_ext_scan_response_set_data
                0x00000000100115bc                gap_ext_advertisements_enable
                0x00000000100115be                gap_ext_advertisements_set_params
                0x00000000100115c0                ble_per_advertisements_set_data
                0x00000000100115c2                ble_per_advertisements_enable
                0x00000000100115c4                ble_per_advertisements_add_device_list
                0x00000000100115c6                ble_per_advertisements_creat_sync
                0x00000000100115c8                ble_per_advertisements_creat_sync_cancel
                0x00000000100115ca                ble_per_advertisements_terminate_sync
                0x00000000100115cc                gap_create_connect
                0x000000001001160a                gap_ext_create_connect
                0x0000000010011648                gap_create_connect_cancel
                0x0000000010011676                ble_vs_tbox_prod_test_start
                0x0000000010011690                gap_disconnect
                0x00000000100116e0                hci_rx_flush
 .text.stack.hci_init
                0x00000000100116e4       0x96 ..\..\libs\ble\libbtstack_all_roles.a(hci.o)
                0x0000000010011704                hci_power_control
 .text.stack.handler.acl
                0x000000001001177a       0x16 ..\..\libs\ble\libbtstack_all_roles.a(hci.o)
 .text.stack.setup
                0x0000000010011790       0xe8 ..\..\libs\ble\libbtstack_all_roles.a(hci.o)
                0x00000000100117f4                hci_add_event_handler
                0x0000000010011802                hci_register_acl_packet_handler
                0x000000001001180c                hci_init
 .text.stack.hci
                0x0000000010011878      0x176 ..\..\libs\ble\libbtstack_all_roles.a(hci.o)
 .text.stack.hci.conn
                0x00000000100119ee       0xec ..\..\libs\ble\libbtstack_all_roles.a(hci.o)
                0x00000000100119ee                get_free_hci_connection
                0x0000000010011a28                create_connection_for_bd_addr_and_type
                0x0000000010011a9e                hci_connection_for_bd_addr_and_type
 .text.stack.hci.conn_param_get
                0x0000000010011ada       0x10 ..\..\libs\ble\libbtstack_all_roles.a(hci.o)
                0x0000000010011ada                gap_get_connection_parameter_range
 .text.ble.hci  0x0000000010011aea      0x1e4 ..\..\libs\ble\libbtstack_all_roles.a(hci.o)
                0x0000000010011aea                ble_event_cmd_complete
                0x0000000010011ba8                ble_event_meta
 .text.stack.hci_send
                0x0000000010011cce      0x14a ..\..\libs\ble\libbtstack_all_roles.a(hci.o)
                0x0000000010011cce                hci_send_cmd_packet
                0x0000000010011dbe                hci_send_cmd
 *fill*         0x0000000010011e18      0x1e8 
 .text.stack.hci.run
                0x0000000010012000      0x3ce ..\..\libs\ble\libbtstack_all_roles.a(hci.o)
 .text.stack.hci_emit
                0x00000000100123ce       0x2e ..\..\libs\ble\libbtstack_all_roles.a(hci.o)
                0x00000000100123ce                hci_emit_state
 .text.stack.hci.le.adv
                0x00000000100123fc       0x46 ..\..\libs\ble\libbtstack_all_roles.a(hci.o)
                0x00000000100123fc                hci_le_advertisements_set_params
 .text.hci.adv.is_enable
                0x0000000010012442       0x16 ..\..\libs\ble\libbtstack_all_roles.a(hci.o)
                0x0000000010012442                gap_advertisements_is_enable
 .text          0x0000000010012458       0x42 ..\..\libs\ble\libbtstack_all_roles.a(btstack_util.o)
                0x0000000010012458                log_info_hexdump
                0x000000001001245a                log_info_key
                0x000000001001245c                uuid_add_bluetooth_prefix
                0x000000001001247e                uuid_has_bluetooth_prefix
 .text.stack.util
                0x000000001001249a      0x126 ..\..\libs\ble\libbtstack_all_roles.a(btstack_util.o)
                0x000000001001249a                bd_addr_cmp
                0x00000000100124a0                bd_addr_copy
                0x00000000100124a6                big_endian_read_16
                0x00000000100124b6                big_endian_read_32
                0x00000000100124d6                big_endian_store_16
                0x00000000100124ea                big_endian_store_32
                0x000000001001251e                reverse_bytes
                0x000000001001253a                reverse_24
                0x000000001001253e                reverse_48
                0x0000000010012542                reverse_56
                0x0000000010012546                reverse_64
                0x000000001001254a                reverse_128
                0x000000001001254e                reverse_256
                0x0000000010012554                reverse_bd_addr
                0x0000000010012556                btstack_min
                0x000000001001255c                btstack_max
                0x0000000010012562                char_for_nibble
                0x0000000010012588                nibble_for_char
 .text.stack.hci_dump
                0x00000000100125c0       0x50 ..\..\libs\ble\libbtstack_all_roles.a(btstack_util.o)
                0x00000000100125c0                bd_addr_to_str
 .text          0x0000000010012610        0x2 ..\..\libs\ble\libbtstack_all_roles.a(btstack_run_loop.o)
                0x0000000010012610                thread_nanos_task_create
 *fill*         0x0000000010012612       0x6e 
 .text.stack.run_loop
                0x0000000010012680      0x168 ..\..\libs\ble\libbtstack_all_roles.a(btstack_run_loop.o)
                0x0000000010012680                btstack_run_loop_set_timer_handler
                0x0000000010012684                btstack_run_loop_set_data_source_handler
                0x0000000010012688                btstack_run_loop_set_data_source_fd
                0x000000001001268c                btstack_run_loop_get_data_source_fd
                0x0000000010012690                btstack_run_loop_enable_data_source_callbacks
                0x000000001001269c                btstack_run_loop_disable_data_source_callbacks
                0x00000000100126ac                btstack_run_loop_add_data_source
                0x00000000100126b6                btstack_run_loop_remove_data_source
                0x00000000100126c0                btstack_run_loop_set_timer
                0x00000000100126da                btstack_run_loop_set_timer_context
                0x00000000100126de                btstack_run_loop_get_timer_context
                0x0000000010012700                btstack_run_loop_set_trig_ticks
                0x000000001001273c                btstack_run_loop_add_timer
                0x000000001001276c                btstack_run_loop_remove_timer
                0x000000001001279c                btstack_run_loop_get_ticks
                0x00000000100127a6                btstack_run_loop_ticks_for_ms
                0x00000000100127ac                btstack_run_loop_get_time_ms
                0x00000000100127b8                btstack_run_loop_timer_dump
 .text.stack.setup
                0x00000000100127e8       0x2e ..\..\libs\ble\libbtstack_all_roles.a(btstack_run_loop.o)
                0x00000000100127e8                btstack_run_loop_init
 .text          0x0000000010012816       0x2c ..\..\libs\ble\libbtstack_all_roles.a(btstack_memory.o)
                0x0000000010012816                btstack_memory_gatt_client_get
                0x0000000010012820                btstack_memory_gatt_client_free
                0x000000001001282c                btstack_memory_gatt_client_init
 .text.stack.setup
                0x0000000010012842        0x2 ..\..\libs\ble\libbtstack_all_roles.a(btstack_memory.o)
                0x0000000010012842                btstack_memory_init
 .text.stack.linked_list
                0x0000000010012844       0x78 ..\..\libs\ble\libbtstack_all_roles.a(btstack_linked_list.o)
                0x0000000010012844                btstack_linked_list_get_last_item
                0x0000000010012852                btstack_linked_list_add
                0x0000000010012866                btstack_linked_list_add_tail
                0x000000001001287a                btstack_linked_list_remove
                0x0000000010012892                btstack_linked_list_count
                0x00000000100128a0                btstack_linked_list_iterator_remove
                0x00000000100128b0                btstack_linked_list_pop
 .text          0x00000000100128bc       0x2a ..\..\libs\ble\libbtstack_all_roles.a(hci_transport_hcic.o)
                0x00000000100128bc                hcic_rx_flush
                0x00000000100128d8                hci_init_var
 .text.stack.hcic
                0x00000000100128e6       0x5c ..\..\libs\ble\libbtstack_all_roles.a(hci_transport_hcic.o)
 .text          0x0000000010012942       0x10 ..\..\libs\ble\libbtstack_all_roles.a(hci_transport_dummy.o)
                0x0000000010012942                hci_iodm_init
 .text          0x0000000010012952       0x10 ..\..\libs\ble\libbtstack_all_roles.a(btstack_main.o)
                0x0000000010012952                btstack_ble_set_init_callback
                0x000000001001295a                btstack_ble_vs_tbox_set_init_callback
 .text.stack.handler
                0x0000000010012962       0x60 ..\..\libs\ble\libbtstack_all_roles.a(btstack_main.o)
 .text.stack.ble.setup
                0x00000000100129c2        0x4 ..\..\libs\ble\libbtstack_all_roles.a(btstack_main.o)
                0x00000000100129c2                btstack_ble_init
 .text.stack.setup
                0x00000000100129c6       0x34 ..\..\libs\ble\libbtstack_all_roles.a(btstack_main.o)
                0x00000000100129c6                btstack_main
 .text          0x00000000100129fa       0x18 ..\..\libs\ble\libbtstack_all_roles.a(btstack_hal.o)
                0x00000000100129fa                hal_tick_init
                0x0000000010012a00                hal_tick_set_handler
 .text          0x0000000010012a12       0x70 ..\..\libs\ble\libbtstack_all_roles.a(nanos.o)
                0x0000000010012a12                nanos_init
                0x0000000010012a46                nanos_var_init
 .text          0x0000000010012a82       0x34 ..\..\libs\ble\libbtstack_all_roles.a(bb_sche.o)
                0x0000000010012a82                bb_sche_frag_ble_dur_set
                0x0000000010012a94                bb_sche_init
 .text          0x0000000010012ab6       0xaa ..\..\libs\ble\libbtstack_all_roles.a(patch.o)
                0x0000000010012ab6                bb_patch_dummy
                0x0000000010012ab8                bb_patch_init
 .text          0x0000000010012b60       0xfe ..\..\libs\ble\libbtstack_all_roles.a(bb_clk.o)
                0x0000000010012b60                bb_clk_init
                0x0000000010012c5c                bb_clk_off
 .text.bb.aes   0x0000000010012c5e      0x25c ..\..\libs\ble\libbtstack_all_roles.a(aes.o)
                0x0000000010012c5e                aes_init
                0x0000000010012ca8                aes_alloc
                0x0000000010012cca                aes_start
                0x0000000010012d08                aes_encrypt
                0x0000000010012d54                aes_rand
                0x0000000010012d90                aes_result_handler
                0x0000000010012df8                ble_ecpy
 .text          0x0000000010012eba       0x3c ..\..\libs\ble\libbtstack_all_roles.a(extern.o)
                0x0000000010012ecc                ble_adv_is_private_mode
                0x0000000010012ed0                ble_scan_is_private_mode
                0x0000000010012ed4                ble_private_access_code_get
                0x0000000010012ee6                ble_scan_freq_hop_en
                0x0000000010012eea                ble_tbox_feature_req_enabled
                0x0000000010012eee                ble_chmap_instant_pass_discon
                0x0000000010012ef2                ble_adv_duration_get
 .text          0x0000000010012ef6       0x9c ..\..\libs\ble\libbtstack_all_roles.a(vs.o)
                0x0000000010012ef6                vs_init
                0x0000000010012f32                vs_reset_complete_evt
 .text          0x0000000010012f92      0xc2a ..\..\libs\ble\libbtstack_all_roles.a(rf_xbox.o)
                0x0000000010013226                rfphy_rxdc_cal
                0x0000000010013530                rfphy_txdc_cal
                0x0000000010013b86                rfphy_test
                0x0000000010013b88                ble_rf_external_pa_init
 .text.bb.phy.pll
                0x0000000010013bbc       0x9c ..\..\libs\ble\libbtstack_all_roles.a(rf_xbox.o)
                0x0000000010013bbc                rfphy_pll_afc
 .text.bb.phy.tx
                0x0000000010013c58      0x10a ..\..\libs\ble\libbtstack_all_roles.a(rf_xbox.o)
                0x0000000010013c58                rfphy_tx
                0x0000000010013cd8                rfphy_tx_tone
 .text.bb.rf    0x0000000010013d62       0x7a ..\..\libs\ble\libbtstack_all_roles.a(rf_xbox.o)
                0x0000000010013d62                rfphy_tx_pwr
                0x0000000010013dac                rfphy_sw_ctrl
 .text          0x0000000010013ddc       0x8e ..\..\libs\ble\libbtstack_all_roles.a(complex.o)
                0x0000000010013ddc                complexAdd
                0x0000000010013de6                complexSubtract
                0x0000000010013df0                complexMultiply
                0x0000000010013e0c                complexDivision
 .text          0x0000000010013e6a        0x2 ..\..\libs\ble\libbtstack_all_roles.a(ble_hook.o)
                0x0000000010013e6a                ble_hal_init_hook
 *fill*         0x0000000010013e6c      0x194 
 .text          0x0000000010014000      0xa1e ..\..\libs\ble\libbtstack_all_roles.a(hct_tl.o)
                0x0000000010014400                hci_tx_done_do
                0x0000000010014600                hci_tl_send
                0x0000000010014684                hci_tl_init
                0x00000000100146c0                hci_cmd_received
 .text          0x0000000010014a1e      0x304 ..\..\libs\ble\libbtstack_all_roles.a(hct_msg.o)
                0x0000000010014bf6                hci_look_for_cmd_desc
                0x0000000010014c84                hci_look_for_evt_desc
                0x0000000010014cc6                hci_look_for_dbg_evt_desc
                0x0000000010014ce0                hci_look_for_le_evt_desc
 .text          0x0000000010014d22       0x38 ..\..\libs\ble\libbtstack_all_roles.a(hct.o)
                0x0000000010014d22                hct_init
                0x0000000010014d3a                hci_send_2_host
                0x0000000010014d40                hci_ble_conhdl_register
                0x0000000010014d4e                hci_ble_conhdl_unregister
 .text          0x0000000010014d5a      0x18e ..\..\libs\ble\libbtstack_all_roles.a(mgr_hci.o)
                0x0000000010014ed4                hci_le_rd_buff_size
 .text.le.mgr   0x0000000010014ee8       0x38 ..\..\libs\ble\libbtstack_all_roles.a(mgr_hci.o)
                0x0000000010014ee8                hci_command_mgr_func
 .text          0x0000000010014f20      0x49c ..\..\libs\ble\libbtstack_all_roles.a(mgr.o)
                0x0000000010014f20                mgr_cmd_cmp_send
                0x0000000010014f48                mgr_cmd_stat_send
                0x0000000010014f70                mgr_is_dev_connected
                0x0000000010014fc2                mgr_ral_is_empty
                0x0000000010014fc6                mgr_ch_map_update
                0x000000001001512c                mgr_init
                0x000000001001524a                mgr_clk_acc_set
                0x0000000010015288                mgr_link_disc
                0x00000000100152bc                mgr_master_ch_map_get
                0x00000000100152c4                mgr_le_evt_mask_check
                0x00000000100152de                mgr_le_get_features
                0x000000001001532e                mgr_le_get_tbox_feat
                0x000000001001533c                mgr_plan_elt_get
                0x000000001001534a                mgr_act_get_free
                0x000000001001539a                mgr_act_set_free
 .text          0x00000000100153bc      0x436 ..\..\libs\ble\libbtstack_all_roles.a(ll_scan.o)
                0x00000000100153bc                hci_le_set_scan_param_cmd_func
                0x0000000010015508                hci_le_set_scan_en_cmd_func
 .text.le.ll_scan
                0x00000000100157f2      0x5e4 ..\..\libs\ble\libbtstack_all_roles.a(ll_scan.o)
                0x00000000100157f2                ble_adv_rep_ind_func
                0x0000000010015d58                ble_scan_end_ind_func
 .text          0x0000000010015dd6      0x64a ..\..\libs\ble\libbtstack_all_roles.a(ll_adv.o)
                0x0000000010015e60                ll_adv_hdl_to_idx
                0x0000000010015ea2                hci_le_set_adv_param_cmd_func
                0x0000000010016058                hci_le_set_adv_data_cmd_func
                0x0000000010016124                hci_le_set_scan_rsp_data_cmd_func
                0x00000000100161f0                hci_le_set_adv_en_cmd_func
 .text.le.ll_adv.con
                0x0000000010016420      0x274 ..\..\libs\ble\libbtstack_all_roles.a(ll_adv.o)
                0x0000000010016420                ble_adv_end_con_ind
 .text.le.ll_adv
                0x0000000010016694      0x2aa ..\..\libs\ble\libbtstack_all_roles.a(ll_adv.o)
                0x0000000010016694                ble_adv_end_ind_func
 .text          0x000000001001693e      0x268 ..\..\libs\ble\libbtstack_all_roles.a(ll_tbox_freq_cal.o)
                0x0000000010016a0e                ll_op_tbox_freq_cal_ind_func
                0x0000000010016a3a                ll_op_tbox_freq_cal_end_ind_func
                0x0000000010016b34                ll_tbox_freq_cal_proc_start
 .text.le.ll_cntl.pdu
                0x0000000010016ba6      0x130 ..\..\libs\ble\libbtstack_all_roles.a(ll_tbox_freq_cal.o)
                0x0000000010016ba6                ll_tbox_freq_cal_req_func
                0x0000000010016c56                ll_tbox_freq_cal_rsp_func
 *fill*         0x0000000010016cd6        0x2 
 .text          0x0000000010016cd8      0xc0c ..\..\libs\ble\libbtstack_all_roles.a(ll_con_upd.o)
                0x0000000010017574                hci_le_con_upd_cmd_func
                0x00000000100176a0                ll_op_con_upd_ind_func
                0x0000000010017732                ble_con_param_upd_cfm_func
                0x000000001001779e                ble_con_offset_upd_ind_func
                0x00000000100177f0                ll_con_move_cb
 .text.le.ll_cntl.pdu
                0x00000000100178e4      0x308 ..\..\libs\ble\libbtstack_all_roles.a(ll_con_upd.o)
                0x00000000100178e4                ll_con_update_ind_func
                0x0000000010017a42                ll_con_param_req_func
                0x0000000010017b56                ll_con_param_rsp_func
 .text          0x0000000010017bec      0x22c ..\..\libs\ble\libbtstack_all_roles.a(ll_cntl.o)
                0x0000000010017bec                ll_pdu_send_reject_ind
                0x0000000010017c3e                ble_cntl_rx_ind_func
                0x0000000010017dc0                ble_cntl_tx_cfm_func
 .text.le.ll_cntl.pdu
                0x0000000010017e18       0x64 ..\..\libs\ble\libbtstack_all_roles.a(ll_cntl.o)
 .text.le.ll_cntl.send
                0x0000000010017e7c      0x18a ..\..\libs\ble\libbtstack_all_roles.a(ll_cntl.o)
                0x0000000010017e7c                ll_cntl_tx_check
                0x0000000010017f68                ll_cntl_send
 .text.le.ll_cntl.pdu
                0x0000000010018006       0xf8 ..\..\libs\ble\libbtstack_all_roles.a(ll_clk_acc.o)
                0x0000000010018006                ll_clk_acc_req_func
                0x0000000010018060                ll_clk_acc_rsp_func
 .text          0x00000000100180fe      0x302 ..\..\libs\ble\libbtstack_all_roles.a(ll_chmap_upd.o)
                0x00000000100182fc                ll_op_ch_map_upd_ind_func
                0x0000000010018358                mgr_ch_map_update_ind_func
                0x00000000100183d0                ble_ch_map_upd_cfm_func
 .text.le.ll_cntl.pdu
                0x0000000010018400      0x1c2 ..\..\libs\ble\libbtstack_all_roles.a(ll_chmap_upd.o)
                0x0000000010018400                ll_channel_map_ind_func
                0x0000000010018520                ll_min_used_channels_ind_func
 .text.le.ll_cntl
                0x00000000100185c2      0x2e8 ..\..\libs\ble\libbtstack_all_roles.a(ll.o)
                0x000000001001862a                ll_cleanup
                0x00000000100186b4                ll_init
                0x0000000010018720                ll_role_get
                0x0000000010018756                ll_proc_reg
                0x00000000100187a0                ll_proc_id_get
                0x00000000100187be                ll_proc_state_get
                0x00000000100187c4                ll_proc_state_set
                0x00000000100187ca                ll_proc_get
                0x00000000100187e0                ll_proc_err_ind
                0x0000000010018806                ll_proc_unreg
                0x0000000010018874                ll_proc_collision_check
 .text.le.ll_cntl.start
                0x00000000100188aa      0x23a ..\..\libs\ble\libbtstack_all_roles.a(ll.o)
                0x00000000100188aa                ll_start
 .text.le.ll_cntl.state
                0x0000000010018ae4       0x5e ..\..\libs\ble\libbtstack_all_roles.a(ll.o)
                0x0000000010018ae4                ll_cntl_state_set
 .text.le.ll_cntl.stop
                0x0000000010018b42       0x46 ..\..\libs\ble\libbtstack_all_roles.a(ll.o)
                0x0000000010018b42                ll_stop
 .text.le.ll_cntl.timer
                0x0000000010018b88       0xd4 ..\..\libs\ble\libbtstack_all_roles.a(ll.o)
                0x0000000010018b88                ll_proc_timer_set
                0x0000000010018bf6                ll_proc_timer_set_state
 .text          0x0000000010018c5c      0x12a ..\..\libs\ble\libbtstack_all_roles.a(ble_scan.o)
                0x0000000010018c5c                ble_get_scan_var
                0x0000000010018c64                ble_get_ssync_var
                0x0000000010018c6c                ble_scan_private_init_hook
                0x0000000010018d12                ble_scan_init
 .text          0x0000000010018d86      0x2cc ..\..\libs\ble\libbtstack_all_roles.a(ble_hal.o)
                0x0000000010018d86                ble_get_rslv_var
                0x0000000010018d8a                ble_hal_init
                0x0000000010018fac                ble_ch_assess_data_get
                0x0000000010018fb4                ble_aa_gen
 *fill*         0x0000000010019052       0xae 
 .text          0x0000000010019100      0x6ae ..\..\libs\ble\libbtstack_all_roles.a(ble_adv.o)
                0x0000000010019100                ble_adv_start_do
                0x00000000100191a8                ble_adv_start
                0x000000001001974e                ble_get_adv_var
                0x0000000010019756                ble_adv_init
 .text          0x00000000100197ae      0x150 ..\..\libs\ble\libbtstack_all_roles.a(ble_buf.o)
                0x00000000100197ae                ble_buf_init_do
                0x00000000100198b6                ble_buf_init
 .text          0x00000000100198fe       0x42 ..\..\libs\ble\libbtstack_all_roles.a(ble.o)
                0x00000000100198fe                ble_init
 .text.ble.var.init
                0x0000000010019940       0x58 ..\..\libs\ble\libbtstack_all_roles.a(ble.o)
                0x0000000010019940                ble_var_init
 .text.stack.l2cap_sig
                0x0000000010019998       0xcc ..\..\libs\ble\libbtstack_all_roles.a(l2cap_signaling.o)
                0x0000000010019a62                l2cap_create_signaling_le
 .text.stack.memory
                0x0000000010019a64       0x46 ..\..\libs\ble\libbtstack_all_roles.a(btstack_memory_pool.o)
                0x0000000010019a64                btstack_memory_pool_get
                0x0000000010019a70                btstack_memory_pool_free
                0x0000000010019a84                btstack_memory_pool_create
 .text          0x0000000010019aaa       0xa8 ..\..\libs\ble\libbtstack_all_roles.a(vs_proc.o)
 .text.bb.vs.fcc_ble.do
                0x0000000010019b52       0xa0 ..\..\libs\ble\libbtstack_all_roles.a(vs_fcc.o)
                0x0000000010019b52                vs_ble_test_do
 .text.bb.vs.fcc
                0x0000000010019bf2       0xc8 ..\..\libs\ble\libbtstack_all_roles.a(vs_fcc.o)
                0x0000000010019bf2                vs_ble_test
                0x0000000010019bf6                vs_fcc_test_cmd
 .text          0x0000000010019cba        0x4 ..\..\libs\ble\libbtstack_all_roles.a(scan_hook.o)
                0x0000000010019cba                ble_scan_end_ind_hook
 .text          0x0000000010019cbe        0x4 ..\..\libs\ble\libbtstack_all_roles.a(adv_hook.o)
                0x0000000010019cbe                ble_adv_end_ind_hook
 .text          0x0000000010019cc2      0x218 ..\..\libs\ble\libbtstack_all_roles.a(mgr_test.o)
                0x0000000010019cea                ble_test_end_ind_func
                0x0000000010019d22                hci_le_rx_test_v1_cmd_func
                0x0000000010019d68                hci_le_tx_test_v1_cmd_func
                0x0000000010019dcc                hci_le_rx_test_v2_cmd_func
                0x0000000010019e2c                hci_le_tx_test_v2_cmd_func
                0x0000000010019ea2                hci_le_test_end_cmd_func
 .text          0x0000000010019eda       0x54 ..\..\libs\ble\libbtstack_all_roles.a(mgr_proc.o)
 .text          0x0000000010019f2e      0xa6a ..\..\libs\ble\libbtstack_all_roles.a(mgr_init.o)
                0x0000000010019f2e                hci_le_create_con_cmd_func
                0x000000001001a250                hci_le_ext_create_con_cmd_func
                0x000000001001a5ac                hci_le_create_con_cancel_cmd_func
                0x000000001001a61e                ble_init_end_ind_func
 .text          0x000000001001a998       0x60 ..\..\libs\ble\libbtstack_all_roles.a(ll_version.o)
                0x000000001001a9c4                ble_ll_version_get
 .text.le.ll_cntl.pdu
                0x000000001001a9f8      0x120 ..\..\libs\ble\libbtstack_all_roles.a(ll_version.o)
                0x000000001001a9f8                ll_version_ind_func
 .text          0x000000001001ab18      0x152 ..\..\libs\ble\libbtstack_all_roles.a(ll_tbox_prod_test.o)
                0x000000001001abd0                ll_op_tbox_prod_test_ind_func
                0x000000001001abfc                ll_tbox_prod_test_proc_start
 .text.le.ll_cntl.pdu
                0x000000001001ac6a       0xa0 ..\..\libs\ble\libbtstack_all_roles.a(ll_tbox_prod_test.o)
                0x000000001001ac6a                ll_tbox_prod_test_req_func
                0x000000001001acdc                ll_tbox_prod_test_rsp_func
 .text          0x000000001001ad0a      0x134 ..\..\libs\ble\libbtstack_all_roles.a(ll_tbox_feature.o)
                0x000000001001ad98                ll_op_tbox_feat_exch_ind_func
                0x000000001001adc4                ll_tbox_feat_proc_start
 .text.le.ll_cntl.pdu
                0x000000001001ae3e      0x18a ..\..\libs\ble\libbtstack_all_roles.a(ll_tbox_feature.o)
                0x000000001001ae3e                ll_tbox_feat_req_func
                0x000000001001af5c                ll_tbox_feat_rsp_func
 .text          0x000000001001afc8      0x25e ..\..\libs\ble\libbtstack_all_roles.a(ll_proc.o)
                0x000000001001afc8                hci_command_ll_func
                0x000000001001b018                ble_acl_rx_ind_func
                0x000000001001b114                ble_acl_tx_cfm_func
                0x000000001001b13c                ll_cmd_cmp_send
                0x000000001001b16a                hci_vs_set_pref_slave_latency_cmd_func
                0x000000001001b1b6                hci_vs_tbox_prod_test_req_cmd_func
                0x000000001001b1da                hci_vs_tbox_freq_cal_cmd_func
                0x000000001001b1fe                ll_cmd_stat_send
 .text          0x000000001001b226      0x25e ..\..\libs\ble\libbtstack_all_roles.a(ll_ping.o)
                0x000000001001b2a6                ll_op_ping_ind_func
                0x000000001001b2fc                ll_auth_payl_nearly_to_func
                0x000000001001b36a                ll_ping_restart
                0x000000001001b3c0                ll_auth_payl_real_to_func
                0x000000001001b41e                ll_ping_set
 .text.le.ll_cntl.pdu
                0x000000001001b484       0x3c ..\..\libs\ble\libbtstack_all_roles.a(ll_ping.o)
                0x000000001001b484                ll_ping_req_func
                0x000000001001b4a0                ll_ping_rsp_func
 *fill*         0x000000001001b4c0        0x0 
 .text          0x000000001001b4c0      0x978 ..\..\libs\ble\libbtstack_all_roles.a(ll_phy_upd.o)
                0x000000001001bcf4                ll_op_phy_upd_ind_func
                0x000000001001bd80                ble_phy_upd_cfm_func
                0x000000001001bdba                ll_phy_upd_proc_start
 .text.le.ll_cntl.pdu
                0x000000001001be38      0x234 ..\..\libs\ble\libbtstack_all_roles.a(ll_phy_upd.o)
                0x000000001001be38                ll_phy_req_func
                0x000000001001befa                ll_phy_rsp_func
                0x000000001001bf8c                ll_phy_update_ind_func
 .text          0x000000001001c06c      0x368 ..\..\libs\ble\libbtstack_all_roles.a(ll_length.o)
                0x000000001001c2d8                ll_op_length_upd_ind_func
                0x000000001001c33e                ll_length_proc_start_for_param
                0x000000001001c3a0                ll_length_proc_start
 .text.le.ll_cntl.pdu
                0x000000001001c3d4      0x206 ..\..\libs\ble\libbtstack_all_roles.a(ll_length.o)
                0x000000001001c3d4                ll_length_req_func
                0x000000001001c540                ll_length_rsp_func
 .text          0x000000001001c5da      0x29c ..\..\libs\ble\libbtstack_all_roles.a(ll_feature.o)
                0x000000001001c784                ll_op_feats_exch_ind_func
                0x000000001001c7f8                ll_feature_exchange_proc_start
                0x000000001001c842                ble_ll_feature_exchange_get
 .text.le.ll_cntl.pdu
                0x000000001001c876      0x162 ..\..\libs\ble\libbtstack_all_roles.a(ll_feature.o)
                0x000000001001c876                ll_feature_req_func
                0x000000001001c8ea                ll_slave_feature_req_func
                0x000000001001c95e                ll_feature_rsp_func
 *fill*         0x000000001001c9d8        0x0 
 .text          0x000000001001c9d8      0xb10 ..\..\libs\ble\libbtstack_all_roles.a(ll_encrypt.o)
                0x000000001001d1a2                hci_le_en_enc_cmd_func
                0x000000001001d278                hci_le_ltk_req_reply_cmd_func
                0x000000001001d2ec                hci_le_ltk_req_neg_reply_cmd_func
                0x000000001001d378                ll_encrypt_ind_func
                0x000000001001d482                ll_op_encrypt_ind_func
 .text.le.ll_cntl.pdu
                0x000000001001d4e8      0x30e ..\..\libs\ble\libbtstack_all_roles.a(ll_encrypt.o)
                0x000000001001d4e8                ll_pause_enc_req_func
                0x000000001001d564                ll_pause_enc_rsp_func
                0x000000001001d5c4                ll_enc_req_func
                0x000000001001d6c8                ll_enc_rsp_func
                0x000000001001d748                ll_start_enc_req_func
                0x000000001001d7a0                ll_start_enc_rsp_func
 .text          0x000000001001d7f6      0x2e0 ..\..\libs\ble\libbtstack_all_roles.a(ll_disconnect.o)
                0x000000001001d7f6                ble_disc_ind_func
                0x000000001001d84c                ll_stopped_ind_func
                0x000000001001d8ba                hci_disconnect_cmd_func
                0x000000001001da0c                ll_op_disconnect_ind_func
                0x000000001001da86                ll_init_term_proc
 .text.le.ll_proc.disc
                0x000000001001dad6       0x3a ..\..\libs\ble\libbtstack_all_roles.a(ll_disconnect.o)
                0x000000001001dad6                ll_disconnect
 .text.le.ll_cntl.pdu
                0x000000001001db10       0x42 ..\..\libs\ble\libbtstack_all_roles.a(ll_disconnect.o)
                0x000000001001db10                ll_terminate_ind_func
 .text          0x000000001001db52       0x28 ..\..\libs\ble\libbtstack_all_roles.a(ble_test.o)
                0x000000001001db52                ble_test_init
                0x000000001001db72                ble_get_test_var
 .text.bb.ble.test.start
                0x000000001001db7a       0x2e ..\..\libs\ble\libbtstack_all_roles.a(ble_test.o)
                0x000000001001db7a                ble_test_start
 .text          0x000000001001dba8        0x4 ..\..\libs\ble\libbtstack_all_roles.a(ble_sync.o)
                0x000000001001dba8                ble_get_sync_var
 *fill*         0x000000001001dbac       0x54 
 .text          0x000000001001dc00      0x8c0 ..\..\libs\ble\libbtstack_all_roles.a(ble_init.o)
                0x000000001001dc00                ble_init_connect_req_pack
                0x000000001001dd00                ble_init_start_do
                0x000000001001dd6e                ble_init_start_hook
                0x000000001001ddc2                ble_init_start
                0x000000001001e436                ble_init_init
                0x000000001001e4a0                ble_get_init_var
 *(.rodata*)
 .rodata.separate_wakeup_io
                0x000000001001e4c0       0x80 Output\obj\driver\driver_gpio.o
                0x000000001001e4c0                separate_wakeup_io
 .rodata.lowpwr_get_wakeup_source.str1.4
                0x000000001001e540       0x5f Output\obj\driver\driver_lowpwr.o
 *fill*         0x000000001001e59f        0x1 
 .rodata.__func__.4568
                0x000000001001e5a0        0x9 Output\obj\project\ble_all_roles\app\func.o
 *fill*         0x000000001001e5a9        0x3 
 .rodata.func.msg.str1.4
                0x000000001001e5ac      0x115 Output\obj\project\ble_all_roles\app\func.o
 .rodata.func.str1.4
                0x000000001001e6c1      0x115 Output\obj\project\ble_all_roles\app\func.o
                                          0x4 (size before relaxing)
 .rodata.func.bt.str1.4
                0x000000001001e6c1        0x4 Output\obj\project\ble_all_roles\app\func_bt.o
 *fill*         0x000000001001e6c1        0x3 
 .rodata.__func__.4547
                0x000000001001e6c4        0xa Output\obj\project\ble_all_roles\app\func_idle.o
 .rodata.func.idle.str1.4
                0x000000001001e6ce        0x4 Output\obj\project\ble_all_roles\app\func_idle.o
 *fill*         0x000000001001e6ce        0x2 
 .rodata.__func__.5057
                0x000000001001e6d0        0xc Output\obj\project\ble_all_roles\app\func_lowpwr.o
 .rodata.__func__.5080
                0x000000001001e6dc        0xc Output\obj\project\ble_all_roles\app\func_lowpwr.o
 .rodata.app.proc.sleep.str1.4
                0x000000001001e6e8       0x14 Output\obj\project\ble_all_roles\app\func_lowpwr.o
 .rodata.lowpwr.deep_sleep.str1.4
                0x000000001001e6fc       0x21 Output\obj\project\ble_all_roles\app\func_lowpwr.o
                                         0x25 (size before relaxing)
 *fill*         0x000000001001e71d        0x3 
 .rodata.ble_adv_scan_state_correct.str1.4
                0x000000001001e720       0x27 Output\obj\project\ble_all_roles\ble\ble_app.o
 *fill*         0x000000001001e747        0x1 
 .rodata.ble_advertising_report_callback.str1.4
                0x000000001001e748       0x9a Output\obj\project\ble_all_roles\ble\ble_app.o
 *fill*         0x000000001001e7e2        0x2 
 .rodata.__func__.4566
                0x000000001001e7e4       0x1a Output\obj\project\ble_all_roles\ble\ble_client.o
 *fill*         0x000000001001e7fe        0x2 
 .rodata.ble_att_read_callback.str1.4
                0x000000001001e800       0x15 Output\obj\project\ble_all_roles\ble\ble_client.o
 *fill*         0x000000001001e815        0x3 
 .rodata.ble_client_event_callback.str1.4
                0x000000001001e818      0x2c2 Output\obj\project\ble_all_roles\ble\ble_client.o
 *fill*         0x000000001001eada        0x2 
 .rodata.ble_client_notify_callback.str1.4
                0x000000001001eadc       0x1c Output\obj\project\ble_all_roles\ble\ble_client.o
 .rodata.ble_enter_sleep_proc.str1.4
                0x000000001001eaf8       0x2a Output\obj\project\ble_all_roles\ble\ble_proc.o
 *fill*         0x000000001001eb22        0x2 
 .rodata.ble_get_adv_data.str1.4
                0x000000001001eb24       0x28 Output\obj\project\ble_all_roles\ble\ble_service.o
 .rodata.ble_get_scan_data.str1.4
                0x000000001001eb4c       0x2c Output\obj\project\ble_all_roles\ble\ble_service.o
 .rodata.ble_service_init.str1.4
                0x000000001001eb78       0x12 Output\obj\project\ble_all_roles\ble\ble_service.o
 *fill*         0x000000001001eb8a        0x2 
 .rodata.profile_data
                0x000000001001eb8c       0x40 Output\obj\project\ble_all_roles\ble\ble_service.o
                0x000000001001eb8c                profile_data
 .rodata.__func__.4558
                0x000000001001ebcc       0x13 Output\obj\project\ble_all_roles\ble\ble_user_service.o
 *fill*         0x000000001001ebdf        0x1 
 .rodata.ble_event_callback.str1.4
                0x000000001001ebe0       0x14 Output\obj\project\ble_all_roles\ble\ble_user_service.o
                                         0xfc (size before relaxing)
 .rodata.ble_user_service_init.str1.4
                0x000000001001ebf4       0x17 Output\obj\project\ble_all_roles\ble\ble_user_service.o
 *fill*         0x000000001001ec0b        0x1 
 .rodata.ble_user_service_proc.str1.4
                0x000000001001ec0c       0x23 Output\obj\project\ble_all_roles\ble\ble_user_service.o
 *fill*         0x000000001001ec2f        0x1 
 .rodata.service_read_callback.str1.4
                0x000000001001ec30       0x17 Output\obj\project\ble_all_roles\ble\ble_user_service.o
 *fill*         0x000000001001ec47        0x1 
 .rodata.service_write_callback.str1.4
                0x000000001001ec48       0x27 Output\obj\project\ble_all_roles\ble\ble_user_service.o
 *fill*         0x000000001001ec6f        0x1 
 .rodata.app.proc.charge.str1.4
                0x000000001001ec70       0x27 Output\obj\project\ble_all_roles\bsp\bsp_charge.o
 *fill*         0x000000001001ec97        0x1 
 .rodata.charge_status_info
                0x000000001001ec98       0xae Output\obj\project\ble_all_roles\bsp\bsp_charge.o
                0x000000001001ec98                charge_status_info
 *fill*         0x000000001001ed46        0x2 
 .rodata.app.proc.vbat.str1.4
                0x000000001001ed48       0x28 Output\obj\project\ble_all_roles\bsp\bsp_saradc_vbat.o
 .rodata.__func__.4681
                0x000000001001ed70        0xd Output\obj\project\ble_all_roles\bsp\bsp_sys.o
 *fill*         0x000000001001ed7d        0x3 
 .rodata.bsp.sys.init.str1.4
                0x000000001001ed80       0x11 Output\obj\project\ble_all_roles\bsp\bsp_sys.o
                                         0x18 (size before relaxing)
 *fill*         0x000000001001ed91        0x3 
 .rodata.sys_ram_info_dump.str1.4
                0x000000001001ed94       0x9f Output\obj\project\ble_all_roles\bsp\bsp_sys.o
 *fill*         0x000000001001ee33        0x1 
 .rodata.main.str1.4
                0x000000001001ee34       0x2c Output\obj\project\ble_all_roles\main.o
 .rodata.str1.4
                0x000000001001ee60       0x1e Output\obj\project\ble_all_roles\strong_symbol.o
 *fill*         0x000000001001ee7e        0x2 
 .rodata.thread_cfg
                0x000000001001ee80       0x18 Output\obj\project\ble_all_roles\strong_symbol.o
 .rodata.cm_next_freepage.str1.4
                0x000000001001ee98        0xc ..\..\libs\cpu\libplatform.a(cm.o)
 .rodata.cm_movepage.str1.4
                0x000000001001eea4       0x10 ..\..\libs\cpu\libplatform.a(cm.o)
 .rodata.cm_release.str1.4
                0x000000001001eeb4       0x22 ..\..\libs\cpu\libplatform.a(cm.o)
 *fill*         0x000000001001eed6        0x2 
 .rodata.cm_savepage.str1.4
                0x000000001001eed8       0x13 ..\..\libs\cpu\libplatform.a(cm.o)
 *fill*         0x000000001001eeeb        0x1 
 .rodata.cm_check_loadpage.str1.4
                0x000000001001eeec       0x3b ..\..\libs\cpu\libplatform.a(cm.o)
 *fill*         0x000000001001ef27        0x1 
 .rodata.cm_init.str1.4
                0x000000001001ef28       0x30 ..\..\libs\cpu\libplatform.a(cm.o)
 .rodata.platform_main.str1.4
                0x000000001001ef58       0x10 ..\..\libs\cpu\libplatform.a(main.o)
 .rodata.thread_btstack_create.str1.4
                0x000000001001ef68        0xc ..\..\libs\cpu\libplatform.a(startup.o)
 .rodata.thread_main_entry.str1.4
                0x000000001001ef74        0x4 ..\..\libs\cpu\libplatform.a(startup.o)
 .rodata.startup.init.str1.4
                0x000000001001ef78       0x2b ..\..\libs\cpu\libplatform.a(startup.o)
 *fill*         0x000000001001efa3        0x1 
 .rodata.sys_rst_dump.str1.4
                0x000000001001efa4       0x51 ..\..\libs\cpu\libplatform.a(sys.o)
 *fill*         0x000000001001eff5        0x3 
 .rodata.ichsel
                0x000000001001eff8       0x80 ..\..\libs\cpu\libplatform.a(voltage_trim.o)
 .rodata.iends  0x000000001001f078       0x10 ..\..\libs\cpu\libplatform.a(voltage_trim.o)
 .rodata.volt_trim
                0x000000001001f088       0x40 ..\..\libs\cpu\libplatform.a(voltage_trim.o)
 .rodata.str1.4
                0x000000001001f0c8       0x50 ..\..\libs\ble\libbtstack_all_roles.a(sm.o)
 .rodata        0x000000001001f118       0x64 ..\..\libs\ble\libbtstack_all_roles.a(sm.o)
 .rodata.str1.4
                0x000000001001f17c        0x4 ..\..\libs\ble\libbtstack_all_roles.a(le_device_db_memory.o)
 .rodata        0x000000001001f17c       0x14 ..\..\libs\ble\libbtstack_all_roles.a(gatt_client.o)
 .rodata        0x000000001001f190       0x10 ..\..\libs\ble\libbtstack_all_roles.a(att_db.o)
 .rodata.stack.api
                0x000000001001f1a0       0xa0 ..\..\libs\ble\libbtstack_all_roles.a(btstack_api.o)
                0x000000001001f1a0                btstack_basic_tbl
                0x000000001001f1b0                btstack_ctl_param_tbl
                0x000000001001f1d4                btstack_ctl_tbl
 .rodata.bb.tbl
                0x000000001001f240        0x8 ..\..\libs\ble\libbtstack_all_roles.a(ble_con.o)
                0x000000001001f240                connect_req_dur_tab
 .rodata.bb.tbl
                0x000000001001f248       0x16 ..\..\libs\ble\libbtstack_all_roles.a(bb_utils.o)
                0x000000001001f248                null_array
                0x000000001001f258                dft_addr
 *fill*         0x000000001001f25e        0x2 
 .rodata.str1.4
                0x000000001001f260       0x21 ..\..\libs\ble\libbtstack_all_roles.a(bb.o)
 *fill*         0x000000001001f281        0x3 
 .rodata        0x000000001001f284       0x20 ..\..\libs\ble\libbtstack_all_roles.a(bb.o)
                0x000000001001f284                bb_hook
 .rodata.stack.l2cap
                0x000000001001f2a4        0x2 ..\..\libs\ble\libbtstack_all_roles.a(l2cap.o)
 *fill*         0x000000001001f2a6        0x2 
 .rodata.str1.4
                0x000000001001f2a8       0xc5 ..\..\libs\ble\libbtstack_all_roles.a(hci_cmd.o)
                                         0xe1 (size before relaxing)
 *fill*         0x000000001001f36d        0x3 
 .rodata.stack.hci_send
                0x000000001001f370      0x178 ..\..\libs\ble\libbtstack_all_roles.a(hci_cmd.o)
                0x000000001001f370                hci_le_tbox_prod_test_request
                0x000000001001f378                hci_le_set_pref_slave_latency
                0x000000001001f380                hci_le_write_rf_path_compensation
                0x000000001001f388                hci_le_read_rf_path_compensation
                0x000000001001f390                hci_le_transmit_power
                0x000000001001f398                hci_le_read_periodic_adv_list_size
                0x000000001001f3a0                hci_le_set_default_phy
                0x000000001001f3a8                hci_le_long_term_key_negative_reply
                0x000000001001f3b0                hci_le_long_term_key_request_reply
                0x000000001001f3b8                hci_le_rand
                0x000000001001f3c0                hci_le_encrypt
                0x000000001001f3c8                hci_le_connection_update
                0x000000001001f3d0                hci_le_add_device_to_per_adv_list
                0x000000001001f3d8                hci_le_per_advertising_terminate_sync
                0x000000001001f3e0                hci_le_per_advertising_creat_sync_cancel
                0x000000001001f3e8                hci_le_per_advertising_creat_sync
                0x000000001001f3f0                hci_le_ext_create_connection
                0x000000001001f3f8                hci_le_set_ext_scan_enable
                0x000000001001f400                hci_le_set_ext_scan_parameters
                0x000000001001f408                hci_le_set_per_advertise_enable
                0x000000001001f410                hci_le_set_per_advertising_data
                0x000000001001f418                hci_le_set_per_advertising_parameters
                0x000000001001f420                hci_le_set_ext_advertise_enable
                0x000000001001f428                hci_le_set_ext_scan_response_data
                0x000000001001f430                hci_le_set_ext_advertising_data
                0x000000001001f438                hci_le_set_ext_advertising_parameters
                0x000000001001f440                hci_le_set_ext_adv_set_random_address
                0x000000001001f448                hci_le_set_advertise_enable
                0x000000001001f450                hci_le_set_scan_response_data
                0x000000001001f458                hci_le_set_advertising_data
                0x000000001001f460                hci_le_set_advertising_parameters
                0x000000001001f468                hci_le_set_random_address
                0x000000001001f470                hci_le_read_buffer_size
                0x000000001001f478                hci_le_start_encryption
                0x000000001001f480                hci_le_create_connection_cancel
                0x000000001001f488                hci_le_create_connection
                0x000000001001f490                hci_le_set_scan_enable
                0x000000001001f498                hci_le_set_scan_parameters
                0x000000001001f4a0                hci_le_set_event_mask
                0x000000001001f4a8                hci_read_bd_addr
                0x000000001001f4b0                hci_read_buffer_size
                0x000000001001f4b8                hci_read_local_supported_features
                0x000000001001f4c0                hci_read_local_supported_commands
                0x000000001001f4c8                hci_write_le_host_supported
                0x000000001001f4d0                hci_reset
                0x000000001001f4d8                hci_set_event_mask
                0x000000001001f4e0                hci_disconnect
 .rodata.str1.4
                0x000000001001f4e8       0x4d ..\..\libs\ble\libbtstack_all_roles.a(hci.o)
 *fill*         0x000000001001f535        0x3 
 .rodata        0x000000001001f538       0x20 ..\..\libs\ble\libbtstack_all_roles.a(btstack_util.o)
                0x000000001001f548                bluetooth_base_uuid
 .rodata        0x000000001001f558       0x20 ..\..\libs\ble\libbtstack_all_roles.a(hci_transport_dummy.o)
 .rodata        0x000000001001f578       0x24 ..\..\libs\ble\libbtstack_all_roles.a(bb_sche.o)
 .rodata.bb.tbl
                0x000000001001f59c       0x4f ..\..\libs\ble\libbtstack_all_roles.a(rf_xbox.o)
 *fill*         0x000000001001f5eb        0x1 
 .rodata.str1.4
                0x000000001001f5ec       0x20 ..\..\libs\ble\libbtstack_all_roles.a(hct_tl.o)
 .rodata.str1.4
                0x000000001001f60c       0xc7 ..\..\libs\ble\libbtstack_all_roles.a(hct_msg.o)
                                         0xdf (size before relaxing)
 *fill*         0x000000001001f6d3        0x1 
 .rodata        0x000000001001f6d4      0x270 ..\..\libs\ble\libbtstack_all_roles.a(hct_msg.o)
                0x000000001001f6d4                hci_cmd_desc_root_tab
                0x000000001001f714                hci_evt_desc_tab
                0x000000001001f74c                hci_evt_le_desc_tab
                0x000000001001f794                hci_cmd_desc_tab_vs
                0x000000001001f7c4                hci_cmd_desc_tab_le
                0x000000001001f8d8                hci_cmd_desc_tab_info_par
                0x000000001001f8d8                hci_cmd_desc_tab_stat_par
                0x000000001001f8fc                hci_cmd_desc_tab_ctrl_bb
                0x000000001001f938                hci_cmd_desc_tab_lk_ctrl
 .rodata.le.mgr_cntl.tbl
                0x000000001001f944       0x90 ..\..\libs\ble\libbtstack_all_roles.a(mgr_hci.o)
                0x000000001001f944                mgr_hci_cmd_tbl
 .rodata        0x000000001001f9d4       0x1c ..\..\libs\ble\libbtstack_all_roles.a(ll_scan.o)
 .rodata.str1.4
                0x000000001001f9f0       0x49 ..\..\libs\ble\libbtstack_all_roles.a(ll_cntl.o)
                                         0x60 (size before relaxing)
 *fill*         0x000000001001fa39        0x3 
 .rodata.le.ll_cntl.tbl
                0x000000001001fa3c      0x408 ..\..\libs\ble\libbtstack_all_roles.a(ll_cntl.o)
                0x000000001001fa3c                ll_cntl_pdu_tbl
 .rodata.bb.tbl
                0x000000001001fe44        0x7 ..\..\libs\ble\libbtstack_all_roles.a(ble_hal.o)
 *fill*         0x000000001001fe4b        0x1 
 .rodata.bb.tbl
                0x000000001001fe4c       0x1c ..\..\libs\ble\libbtstack_all_roles.a(ble.o)
                0x000000001001fe4c                ble_ctl
 .rodata.str1.4
                0x000000001001fe68       0x14 ..\..\libs\ble\libbtstack_all_roles.a(l2cap_signaling.o)
                                         0x2a (size before relaxing)
 .rodata        0x000000001001fe7c       0x58 ..\..\libs\ble\libbtstack_all_roles.a(l2cap_signaling.o)
 .rodata        0x000000001001fed4       0x10 ..\..\libs\ble\libbtstack_all_roles.a(vs_proc.o)
 .rodata        0x000000001001fee4       0x48 ..\..\libs\ble\libbtstack_all_roles.a(mgr_proc.o)
 .rodata.le.ll_cntl.tbl
                0x000000001001ff2c      0x130 ..\..\libs\ble\libbtstack_all_roles.a(ll_proc.o)
                0x000000001001ff2c                ll_msg_tbl
                0x000000001002001c                ll_hci_cmd_tbl
 *(.srodata*)
 .srodata       0x000000001002005c        0x8 ..\..\libs\ble\libbtstack_all_roles.a(hct_msg.o)
                0x000000001002005c                hci_evt_dbg_desc_tab
 .srodata       0x0000000010020064       0x18 ..\..\libs\ble\libbtstack_all_roles.a(mgr.o)
 .srodata       0x000000001002007c        0x5 ..\..\libs\ble\libbtstack_all_roles.a(ll_adv.o)
 *fill*         0x0000000010020081        0x3 
 .srodata       0x0000000010020084        0x8 ..\..\libs\ble\libbtstack_all_roles.a(vs_proc.o)
 *(.rela*)
 .rela.com_periph.etrclockmode1
                0x000000001002008c        0x0 Output\obj\driver\driver_adv_timer.o
 .rela.com_periph.tim.etrclockmode2
                0x000000001002008c        0x0 Output\obj\driver\driver_adv_timer.o
 .rela.text.charge_init
                0x000000001002008c        0x0 Output\obj\driver\driver_adv_timer.o
 .rela.text.app.proc.charge
                0x000000001002008c        0x0 Output\obj\driver\driver_adv_timer.o
 .rela.text.clk_clk32k_rtc_get
                0x000000001002008c        0x0 Output\obj\driver\driver_adv_timer.o
 .rela.text.clk_saradc_clk_get
                0x000000001002008c        0x0 Output\obj\driver\driver_adv_timer.o
 .rela.text.clk_udet_clk_get
                0x000000001002008c        0x0 Output\obj\driver\driver_adv_timer.o
 .rela.text.clk_hsut0_clk_get
                0x000000001002008c        0x0 Output\obj\driver\driver_adv_timer.o
 .rela.text.clk_tmr_inc_get
                0x000000001002008c        0x0 Output\obj\driver\driver_adv_timer.o
 .rela.text.clk_clk2m_ks_get
                0x000000001002008c        0x0 Output\obj\driver\driver_adv_timer.o
 .rela.text.clk_sdadda_clk_get
                0x000000001002008c        0x0 Output\obj\driver\driver_adv_timer.o
 .rela.text.clk_touch_key_clk_get
                0x000000001002008c        0x0 Output\obj\driver\driver_adv_timer.o
 .rela.text.clk_ttmr_inc_get
                0x000000001002008c        0x0 Output\obj\driver\driver_adv_timer.o
 .rela.text.wk0_edge_capture_config
                0x000000001002008c        0x0 Output\obj\driver\driver_adv_timer.o
 .rela.text.gpio_edge_capture_config
                0x000000001002008c        0x0 Output\obj\driver\driver_adv_timer.o
 .rela.text.gpio_edge_pic_config
                0x000000001002008c        0x0 Output\obj\driver\driver_adv_timer.o
 .rela.text.hsuart_init
                0x000000001002008c        0x0 Output\obj\driver\driver_adv_timer.o
 .rela.text.hsuart_baud_config
                0x000000001002008c        0x0 Output\obj\driver\driver_adv_timer.o
 .rela.text.hsuart_pic_config
                0x000000001002008c        0x0 Output\obj\driver\driver_adv_timer.o
 .rela.text.iic_send_data
                0x000000001002008c        0x0 Output\obj\driver\driver_adv_timer.o
 .rela.text.iic_receive_data
                0x000000001002008c        0x0 Output\obj\driver\driver_adv_timer.o
 .rela.text.iic_pic_config
                0x000000001002008c        0x0 Output\obj\driver\driver_adv_timer.o
 .rela.text.irrx_decode_config
                0x000000001002008c        0x0 Output\obj\driver\driver_adv_timer.o
 .rela.text.irrx_base_init
                0x000000001002008c        0x0 Output\obj\driver\driver_adv_timer.o
 .rela.text.irrx_wake_init
                0x000000001002008c        0x0 Output\obj\driver\driver_adv_timer.o
 .rela.text.ir_clk_init
                0x000000001002008c        0x0 Output\obj\driver\driver_adv_timer.o
 .rela.text.irtx_clk_init
                0x000000001002008c        0x0 Output\obj\driver\driver_adv_timer.o
 .rela.text.irtx_timing_set
                0x000000001002008c        0x0 Output\obj\driver\driver_adv_timer.o
 .rela.text.irtx_timing_init
                0x000000001002008c        0x0 Output\obj\driver\driver_adv_timer.o
 .rela.text.irtx_init
                0x000000001002008c        0x0 Output\obj\driver\driver_adv_timer.o
 .rela.text.irtx_base_init
                0x000000001002008c        0x0 Output\obj\driver\driver_adv_timer.o
 .rela.text.irtx_capture_init
                0x000000001002008c        0x0 Output\obj\driver\driver_adv_timer.o
 .rela.text.irtx_capture_buf_init
                0x000000001002008c        0x0 Output\obj\driver\driver_adv_timer.o
 .rela.text.irtx_learn_init
                0x000000001002008c        0x0 Output\obj\driver\driver_adv_timer.o
 .rela.text.irtx_pic_config
                0x000000001002008c        0x0 Output\obj\driver\driver_adv_timer.o
 .rela.text.keyscan_pic_config
                0x000000001002008c        0x0 Output\obj\driver\driver_adv_timer.o
 .rela.text.ledc_pic_config
                0x000000001002008c        0x0 Output\obj\driver\driver_adv_timer.o
 .rela.com_sleep.lv2_proc
                0x000000001002008c        0x0 Output\obj\driver\driver_adv_timer.o
 .rela.com_sleep.lv2_wakeup
                0x000000001002008c        0x0 Output\obj\driver\driver_adv_timer.o
 .rela.text.lowpwr_get_wakeup_source
                0x000000001002008c        0x0 Output\obj\driver\driver_adv_timer.o
 .rela.text.lowpwr_wk0_wakeup_config
                0x000000001002008c        0x0 Output\obj\driver\driver_adv_timer.o
 .rela.text.lowpwr_gpio_wakeup_config
                0x000000001002008c        0x0 Output\obj\driver\driver_adv_timer.o
 .rela.text.lowpwr_wakeup_config_do
                0x000000001002008c        0x0 Output\obj\driver\driver_adv_timer.o
 .rela.text.lowpwr_pwroff_mode1_do
                0x000000001002008c        0x0 Output\obj\driver\driver_adv_timer.o
 .rela.com_text.lp_port_init
                0x000000001002008c        0x0 Output\obj\driver\driver_adv_timer.o
 .rela.com_text.pwroff_mode2
                0x000000001002008c        0x0 Output\obj\driver\driver_adv_timer.o
 .rela.com_sleep.sleep
                0x000000001002008c        0x0 Output\obj\driver\driver_adv_timer.o
 .rela.text.qdec_init
                0x000000001002008c        0x0 Output\obj\driver\driver_adv_timer.o
 .rela.text.qdec_pic_config
                0x000000001002008c        0x0 Output\obj\driver\driver_adv_timer.o
 .rela.text.rtc_pic_config
                0x000000001002008c        0x0 Output\obj\driver\driver_adv_timer.o
 .rela.text.saradc_init
                0x000000001002008c        0x0 Output\obj\driver\driver_adv_timer.o
 .rela.text.saradc_deinit
                0x000000001002008c        0x0 Output\obj\driver\driver_adv_timer.o
 .rela.text.saradc_set_baud
                0x000000001002008c        0x0 Output\obj\driver\driver_adv_timer.o
 .rela.text.saradc_pic_config
                0x000000001002008c        0x0 Output\obj\driver\driver_adv_timer.o
 .rela.com_periph.saradc.get_data
                0x000000001002008c        0x0 Output\obj\driver\driver_adv_timer.o
 .rela.text.sdadc_init
                0x000000001002008c        0x0 Output\obj\driver\driver_adv_timer.o
 .rela.text.sdadc_deinit
                0x000000001002008c        0x0 Output\obj\driver\driver_adv_timer.o
 .rela.text.sdadc_pic_config
                0x000000001002008c        0x0 Output\obj\driver\driver_adv_timer.o
 .rela.com_periph.sddac.spr_set
                0x000000001002008c        0x0 Output\obj\driver\driver_adv_timer.o
 .rela.text.sddac_pic_config
                0x000000001002008c        0x0 Output\obj\driver\driver_adv_timer.o
 .rela.text.spi_init
                0x000000001002008c        0x0 Output\obj\driver\driver_adv_timer.o
 .rela.text.spi_pic_config
                0x000000001002008c        0x0 Output\obj\driver\driver_adv_timer.o
 .rela.text.tmr_pic_config
                0x000000001002008c        0x0 Output\obj\driver\driver_adv_timer.o
 .rela.com_periph.tkey.isr
                0x000000001002008c        0x0 Output\obj\driver\driver_adv_timer.o
 .rela.text.touch_key_isr_init
                0x000000001002008c        0x0 Output\obj\driver\driver_adv_timer.o
 .rela.text.touch_key_clk_init
                0x000000001002008c        0x0 Output\obj\driver\driver_adv_timer.o
 .rela.text.touch_key_init
                0x000000001002008c        0x0 Output\obj\driver\driver_adv_timer.o
 .rela.text.uart_init
                0x000000001002008c        0x0 Output\obj\driver\driver_adv_timer.o
 .rela.text.uart_pic_config
                0x000000001002008c        0x0 Output\obj\driver\driver_adv_timer.o
 .rela.text.uart_baud_config
                0x000000001002008c        0x0 Output\obj\driver\driver_adv_timer.o
 .rela.text.utils_ring_buf_init
                0x000000001002008c        0x0 Output\obj\driver\driver_adv_timer.o
 .rela.com_text.ring_buf.write
                0x000000001002008c        0x0 Output\obj\driver\driver_adv_timer.o
 .rela.com_text.ring_buf.read
                0x000000001002008c        0x0 Output\obj\driver\driver_adv_timer.o
 .rela.text.app.proc.func
                0x000000001002008c        0x0 Output\obj\driver\driver_adv_timer.o
 .rela.text.func.msg
                0x000000001002008c        0x0 Output\obj\driver\driver_adv_timer.o
 .rela.text.func
                0x000000001002008c        0x0 Output\obj\driver\driver_adv_timer.o
 .rela.text.app.proc.bt
                0x000000001002008c        0x0 Output\obj\driver\driver_adv_timer.o
 .rela.text.func.bt
                0x000000001002008c        0x0 Output\obj\driver\driver_adv_timer.o
 .rela.text.func.idle
                0x000000001002008c        0x0 Output\obj\driver\driver_adv_timer.o
 .rela.com_text.gpio.isr
                0x000000001002008c        0x0 Output\obj\driver\driver_adv_timer.o
 .rela.com_sleep.lv2
                0x000000001002008c        0x0 Output\obj\driver\driver_adv_timer.o
 .rela.com_text.sleep_tick
                0x000000001002008c        0x0 Output\obj\driver\driver_adv_timer.o
 .rela.text.bsp_gpio_wakeup_config
                0x000000001002008c        0x0 Output\obj\driver\driver_adv_timer.o
 .rela.text.lowpwr_sleep_wakeup_config
                0x000000001002008c        0x0 Output\obj\driver\driver_adv_timer.o
 .rela.com_sleep.lowpwr.sleep
                0x000000001002008c        0x0 Output\obj\driver\driver_adv_timer.o
 .rela.text.lowpwr.deep_sleep_wk
                0x000000001002008c        0x0 Output\obj\driver\driver_adv_timer.o
 .rela.text.lowpwr.deep_sleep
                0x000000001002008c        0x0 Output\obj\driver\driver_adv_timer.o
 .rela.text.app.proc.sleep
                0x000000001002008c        0x0 Output\obj\driver\driver_adv_timer.o
 .rela.text.lowpwr_pwroff_wakeup_config
                0x000000001002008c        0x0 Output\obj\driver\driver_adv_timer.o
 .rela.text.lowpwr.pwroff
                0x000000001002008c        0x0 Output\obj\driver\driver_adv_timer.o
 .rela.text.ble_app_env_init
                0x000000001002008c        0x0 Output\obj\driver\driver_adv_timer.o
 .rela.text.ble_get_conn_cnt
                0x000000001002008c        0x0 Output\obj\driver\driver_adv_timer.o
 .rela.text.ble_adv_scan_state_correct
                0x000000001002008c        0x0 Output\obj\driver\driver_adv_timer.o
 .rela.text.ble_conn_state_set
                0x000000001002008c        0x0 Output\obj\driver\driver_adv_timer.o
 .rela.text.ble_advertising_report_callback
                0x000000001002008c        0x0 Output\obj\driver\driver_adv_timer.o
 .rela.text.ble_client_event_callback
                0x000000001002008c        0x0 Output\obj\driver\driver_adv_timer.o
 .rela.text.ble_att_read_callback
                0x000000001002008c        0x0 Output\obj\driver\driver_adv_timer.o
 .rela.text.ble_client_notify_callback
                0x000000001002008c        0x0 Output\obj\driver\driver_adv_timer.o
 .rela.text.ble_client_init
                0x000000001002008c        0x0 Output\obj\driver\driver_adv_timer.o
 .rela.text.ble_info_init
                0x000000001002008c        0x0 Output\obj\driver\driver_adv_timer.o
 .rela.text.ble_get_free_conidx
                0x000000001002008c        0x0 Output\obj\driver\driver_adv_timer.o
 .rela.text.ble_txpkt_init
                0x000000001002008c        0x0 Output\obj\driver\driver_adv_timer.o
 .rela.text.ble_sm_param_init
                0x000000001002008c        0x0 Output\obj\driver\driver_adv_timer.o
 .rela.text.ble_adv_param_init
                0x000000001002008c        0x0 Output\obj\driver\driver_adv_timer.o
 .rela.text.ble_scan_param_init
                0x000000001002008c        0x0 Output\obj\driver\driver_adv_timer.o
 .rela.text.ble_all_roles_init
                0x000000001002008c        0x0 Output\obj\driver\driver_adv_timer.o
 .rela.text.bsp_ble_init
                0x000000001002008c        0x0 Output\obj\driver\driver_adv_timer.o
 .rela.text.ble_enter_sleep_proc
                0x000000001002008c        0x0 Output\obj\driver\driver_adv_timer.o
 .rela.text.ble_exit_sleep_proc
                0x000000001002008c        0x0 Output\obj\driver\driver_adv_timer.o
 .rela.text.app.proc.ble
                0x000000001002008c        0x0 Output\obj\driver\driver_adv_timer.o
 .rela.com_sleep.ble.sleep
                0x000000001002008c        0x0 Output\obj\driver\driver_adv_timer.o
 .rela.text.ble_get_scan_data
                0x000000001002008c        0x0 Output\obj\driver\driver_adv_timer.o
 .rela.text.ble_get_adv_data
                0x000000001002008c        0x0 Output\obj\driver\driver_adv_timer.o
 .rela.text.ble_service_init
                0x000000001002008c        0x0 Output\obj\driver\driver_adv_timer.o
 .rela.text.ble_event_callback
                0x000000001002008c        0x0 Output\obj\driver\driver_adv_timer.o
 .rela.text.service_read_callback
                0x000000001002008c        0x0 Output\obj\driver\driver_adv_timer.o
 .rela.text.service_write_callback
                0x000000001002008c        0x0 Output\obj\driver\driver_adv_timer.o
 .rela.text.ble_user_service_init
                0x000000001002008c        0x0 Output\obj\driver\driver_adv_timer.o
 .rela.text.ble_user_service_proc
                0x000000001002008c        0x0 Output\obj\driver\driver_adv_timer.o
 .rela.text.bsp_charge_init
                0x000000001002008c        0x0 Output\obj\driver\driver_adv_timer.o
 .rela.com_text.key.scan
                0x000000001002008c        0x0 Output\obj\driver\driver_adv_timer.o
 .rela.text.bsp_key_init
                0x000000001002008c        0x0 Output\obj\driver\driver_adv_timer.o
 .rela.text.bsp_led_init
                0x000000001002008c        0x0 Output\obj\driver\driver_adv_timer.o
 .rela.text.bsp_led_process
                0x000000001002008c        0x0 Output\obj\driver\driver_adv_timer.o
 .rela.text.bsp.param
                0x000000001002008c        0x0 Output\obj\driver\driver_adv_timer.o
 .rela.text.bsp.param.fota
                0x000000001002008c        0x0 Output\obj\driver\driver_adv_timer.o
 .rela.text.bsp_saradc_init
                0x000000001002008c        0x0 Output\obj\driver\driver_adv_timer.o
 .rela.text.app.proc.saradc
                0x000000001002008c        0x0 Output\obj\driver\driver_adv_timer.o
 .rela.text.app.proc.vbat
                0x000000001002008c        0x0 Output\obj\driver\driver_adv_timer.o
 .rela.text.bsp_vbat_detect_init
                0x000000001002008c        0x0 Output\obj\driver\driver_adv_timer.o
 .rela.text.sys_ram_info_dump
                0x000000001002008c        0x0 Output\obj\driver\driver_adv_timer.o
 .rela.com_text.timer
                0x000000001002008c        0x0 Output\obj\driver\driver_adv_timer.o
 .rela.text.power_on_check
                0x000000001002008c        0x0 Output\obj\driver\driver_adv_timer.o
 .rela.text.bsp.sys.init
                0x000000001002008c        0x0 Output\obj\driver\driver_adv_timer.o
 .rela.text.bsp_periph_init
                0x000000001002008c        0x0 Output\obj\driver\driver_adv_timer.o
 .rela.text.bsp_uart_debug_init
                0x000000001002008c        0x0 Output\obj\driver\driver_adv_timer.o
 .rela.text.startup.main
                0x000000001002008c        0x0 Output\obj\driver\driver_adv_timer.o
 .rela.text.thread_create_callback
                0x000000001002008c        0x0 Output\obj\driver\driver_adv_timer.o
 .rela.text.ble_get_local_bd_addr
                0x000000001002008c        0x0 Output\obj\driver\driver_adv_timer.o
 .rela.text.bt_rf_get_param
                0x000000001002008c        0x0 Output\obj\driver\driver_adv_timer.o
 .rela.text.bt_rf_get_tx_pwr
                0x000000001002008c        0x0 Output\obj\driver\driver_adv_timer.o
 .rela.text.xosc_get_xcfg
                0x000000001002008c        0x0 Output\obj\driver\driver_adv_timer.o
 .rela.text.param_xosc_write
                0x000000001002008c        0x0 Output\obj\driver\driver_adv_timer.o
 .rela.com_text.spiflash
                0x000000001002008c        0x0 Output\obj\driver\driver_adv_timer.o
 .rela.text.ble_get_link_info
                0x000000001002008c        0x0 Output\obj\driver\driver_adv_timer.o
 .rela.text.ble_put_link_info
                0x000000001002008c        0x0 Output\obj\driver\driver_adv_timer.o
 .rela.text.mic_adc_init
                0x000000001002008c        0x0 Output\obj\driver\driver_adv_timer.o
 .rela.com_text.irq.sdadc
                0x000000001002008c        0x0 Output\obj\driver\driver_adv_timer.o
 .rela.text.cm_loadpage
                0x000000001002008c        0x0 Output\obj\driver\driver_adv_timer.o
 .rela.text.cm_next_freepage
                0x000000001002008c        0x0 Output\obj\driver\driver_adv_timer.o
 .rela.text.cm_factory
                0x000000001002008c        0x0 Output\obj\driver\driver_adv_timer.o
 .rela.text.cm_writepage
                0x000000001002008c        0x0 Output\obj\driver\driver_adv_timer.o
 .rela.text.cm_movepage
                0x000000001002008c        0x0 Output\obj\driver\driver_adv_timer.o
 .rela.text.cm_erase
                0x000000001002008c        0x0 Output\obj\driver\driver_adv_timer.o
 .rela.text.cm_release
                0x000000001002008c        0x0 Output\obj\driver\driver_adv_timer.o
 .rela.text.cm_savepage
                0x000000001002008c        0x0 Output\obj\driver\driver_adv_timer.o
 .rela.text.cm_check_loadpage
                0x000000001002008c        0x0 Output\obj\driver\driver_adv_timer.o
 .rela.text.cm_move_allpages
                0x000000001002008c        0x0 Output\obj\driver\driver_adv_timer.o
 .rela.text.cm_sync
                0x000000001002008c        0x0 Output\obj\driver\driver_adv_timer.o
 .rela.text.cm_release_all
                0x000000001002008c        0x0 Output\obj\driver\driver_adv_timer.o
 .rela.text.cm_read
                0x000000001002008c        0x0 Output\obj\driver\driver_adv_timer.o
 .rela.text.cm_read8
                0x000000001002008c        0x0 Output\obj\driver\driver_adv_timer.o
 .rela.text.cm_read16
                0x000000001002008c        0x0 Output\obj\driver\driver_adv_timer.o
 .rela.text.cm_read32
                0x000000001002008c        0x0 Output\obj\driver\driver_adv_timer.o
 .rela.text.cm_write
                0x000000001002008c        0x0 Output\obj\driver\driver_adv_timer.o
 .rela.text.cm_write8
                0x000000001002008c        0x0 Output\obj\driver\driver_adv_timer.o
 .rela.text.cm_write16
                0x000000001002008c        0x0 Output\obj\driver\driver_adv_timer.o
 .rela.text.cm_write32
                0x000000001002008c        0x0 Output\obj\driver\driver_adv_timer.o
 .rela.text.cm_clear
                0x000000001002008c        0x0 Output\obj\driver\driver_adv_timer.o
 .rela.text.cm_init
                0x000000001002008c        0x0 Output\obj\driver\driver_adv_timer.o
 .rela.com_text.spiflash.id
                0x000000001002008c        0x0 Output\obj\driver\driver_adv_timer.o
 .rela.com_text.spiflash.dev_id
                0x000000001002008c        0x0 Output\obj\driver\driver_adv_timer.o
 .rela.com_text.spiflash.read
                0x000000001002008c        0x0 Output\obj\driver\driver_adv_timer.o
 .rela.com_text.spiflash.protect.weak
                0x000000001002008c        0x0 Output\obj\driver\driver_adv_timer.o
 .rela.com_text.spiflash.erase_2
                0x000000001002008c        0x0 Output\obj\driver\driver_adv_timer.o
 .rela.com_text.spiflash.erase_32k
                0x000000001002008c        0x0 Output\obj\driver\driver_adv_timer.o
 .rela.com_text.spiflash.erase_64k
                0x000000001002008c        0x0 Output\obj\driver\driver_adv_timer.o
 .rela.text.xcfg_init
                0x000000001002008c        0x0 Output\obj\driver\driver_adv_timer.o
 .rela.com_text.exception.hook
                0x000000001002008c        0x0 Output\obj\driver\driver_adv_timer.o
 .rela.com_text.exception
                0x000000001002008c        0x0 Output\obj\driver\driver_adv_timer.o
 .rela.com_text.delay
                0x000000001002008c        0x0 Output\obj\driver\driver_adv_timer.o
 .rela.text.platform_main
                0x000000001002008c        0x0 Output\obj\driver\driver_adv_timer.o
 .rela.text.main_startup
                0x000000001002008c        0x0 Output\obj\driver\driver_adv_timer.o
 .rela.text.compiler
                0x000000001002008c        0x0 Output\obj\driver\driver_adv_timer.o
 .rela.com_text.irq
                0x000000001002008c        0x0 Output\obj\driver\driver_adv_timer.o
 .rela.text.sys_irq_init
                0x000000001002008c        0x0 Output\obj\driver\driver_adv_timer.o
 .rela.text.soft_irq_init
                0x000000001002008c        0x0 Output\obj\driver\driver_adv_timer.o
 .rela.text.bthw_irq_init
                0x000000001002008c        0x0 Output\obj\driver\driver_adv_timer.o
 .rela.text.watch_point_set
                0x000000001002008c        0x0 Output\obj\driver\driver_adv_timer.o
 .rela.text.usb_irq_init
                0x000000001002008c        0x0 Output\obj\driver\driver_adv_timer.o
 .rela.text.sys_timer_init
                0x000000001002008c        0x0 Output\obj\driver\driver_adv_timer.o
 .rela.text.thread_driver_create
                0x000000001002008c        0x0 Output\obj\driver\driver_adv_timer.o
 .rela.text.thread_aupcm_create
                0x000000001002008c        0x0 Output\obj\driver\driver_adv_timer.o
 .rela.text.thread_btstack_create
                0x000000001002008c        0x0 Output\obj\driver\driver_adv_timer.o
 .rela.text.thread_main_entry
                0x000000001002008c        0x0 Output\obj\driver\driver_adv_timer.o
 .rela.text.startup.init
                0x000000001002008c        0x0 Output\obj\driver\driver_adv_timer.o
 .rela.com_text.thread.driver
                0x000000001002008c        0x0 Output\obj\driver\driver_adv_timer.o
 .rela.com_text.thread.aupcm
                0x000000001002008c        0x0 Output\obj\driver\driver_adv_timer.o
 .rela.com_text.thread.driver.usb
                0x000000001002008c        0x0 Output\obj\driver\driver_adv_timer.o
 .rela.com_text.thread.driver.vs
                0x000000001002008c        0x0 Output\obj\driver\driver_adv_timer.o
 .rela.text.thread.driver.usb
                0x000000001002008c        0x0 Output\obj\driver\driver_adv_timer.o
 .rela.text.thread.driver.vs
                0x000000001002008c        0x0 Output\obj\driver\driver_adv_timer.o
 .rela.com_text.thread.driver.enter
                0x000000001002008c        0x0 Output\obj\driver\driver_adv_timer.o
 .rela.text.pll0_vco_band_trimming
                0x000000001002008c        0x0 Output\obj\driver\driver_adv_timer.o
 .rela.text.pll0_init
                0x000000001002008c        0x0 Output\obj\driver\driver_adv_timer.o
 .rela.com_text.trim.vddio_get
                0x000000001002008c        0x0 Output\obj\driver\driver_adv_timer.o
 .rela.com_text.trim.vbg_get
                0x000000001002008c        0x0 Output\obj\driver\driver_adv_timer.o
 .rela.com_text.trim.vddio_set
                0x000000001002008c        0x0 Output\obj\driver\driver_adv_timer.o
 .rela.com_text.trim.core_get
                0x000000001002008c        0x0 Output\obj\driver\driver_adv_timer.o
 .rela.com_text.trim.core_set
                0x000000001002008c        0x0 Output\obj\driver\driver_adv_timer.o
 .rela.com_text.trim.lvd_get
                0x000000001002008c        0x0 Output\obj\driver\driver_adv_timer.o
 .rela.com_text.trim.lvd_set
                0x000000001002008c        0x0 Output\obj\driver\driver_adv_timer.o
 .rela.text.pmu_voltage_configure
                0x000000001002008c        0x0 Output\obj\driver\driver_adv_timer.o
 .rela.text.pmu_init
                0x000000001002008c        0x0 Output\obj\driver\driver_adv_timer.o
 .rela.reset    0x000000001002008c        0x0 Output\obj\driver\driver_adv_timer.o
 .rela.com_text.spiflash.erase
                0x000000001002008c        0x0 Output\obj\driver\driver_adv_timer.o
 .rela.com_text.spiflash.read_kick
                0x000000001002008c        0x0 Output\obj\driver\driver_adv_timer.o
 .rela.text.ota_pack
                0x000000001002008c        0x0 Output\obj\driver\driver_adv_timer.o
 .rela.text.lock_code_usbdev
                0x000000001002008c        0x0 Output\obj\driver\driver_adv_timer.o
 .rela.text.patch_init
                0x000000001002008c        0x0 Output\obj\driver\driver_adv_timer.o
 .rela.com_sleep.lp.sleep
                0x000000001002008c        0x0 Output\obj\driver\driver_adv_timer.o
 .rela.text.set_sys_clk_do
                0x000000001002008c        0x0 Output\obj\driver\driver_adv_timer.o
 .rela.text.sys_clk
                0x000000001002008c        0x0 Output\obj\driver\driver_adv_timer.o
 .rela.text.voltage.trim
                0x000000001002008c        0x0 Output\obj\driver\driver_adv_timer.o
 .rela.com_text.stack.api
                0x000000001002008c        0x0 Output\obj\driver\driver_adv_timer.o
 .rela.com_text.stack.run_loop
                0x000000001002008c        0x0 Output\obj\driver\driver_adv_timer.o
 .rela.text     0x000000001002008c        0x0 Output\obj\driver\driver_adv_timer.o
 .rela.text.sm.aes
                0x000000001002008c        0x0 Output\obj\driver\driver_adv_timer.o
 .rela.text.sm.get_handle
                0x000000001002008c        0x0 Output\obj\driver\driver_adv_timer.o
 .rela.text.sm.rau_run
                0x000000001002008c        0x0 Output\obj\driver\driver_adv_timer.o
 .rela.text.gap.rau.update
                0x000000001002008c        0x0 Output\obj\driver\driver_adv_timer.o
 .rela.text.sm.request
                0x000000001002008c        0x0 Output\obj\driver\driver_adv_timer.o
 .rela.text.sm.hdl
                0x000000001002008c        0x0 Output\obj\driver\driver_adv_timer.o
 .rela.text.stack.ble.sm
                0x000000001002008c        0x0 Output\obj\driver\driver_adv_timer.o
 .rela.text.sm.pairing
                0x000000001002008c        0x0 Output\obj\driver\driver_adv_timer.o
 .rela.text.sm.passkey.set
                0x000000001002008c        0x0 Output\obj\driver\driver_adv_timer.o
 .rela.text.sm.passkey.get
                0x000000001002008c        0x0 Output\obj\driver\driver_adv_timer.o
 .rela.text.sm.passkey.input
                0x000000001002008c        0x0 Output\obj\driver\driver_adv_timer.o
 .rela.text.gap.rau.mode
                0x000000001002008c        0x0 Output\obj\driver\driver_adv_timer.o
 .rela.text.sm.run
                0x000000001002008c        0x0 Output\obj\driver\driver_adv_timer.o
 .rela.text.sm.pdu
                0x000000001002008c        0x0 Output\obj\driver\driver_adv_timer.o
 .rela.text.sm.event
                0x000000001002008c        0x0 Output\obj\driver\driver_adv_timer.o
 .rela.text.gap.rau_set
                0x000000001002008c        0x0 Output\obj\driver\driver_adv_timer.o
 .rela.text.gap.adv
                0x000000001002008c        0x0 Output\obj\driver\driver_adv_timer.o
 .rela.text.sm.delete_bonding
                0x000000001002008c        0x0 Output\obj\driver\driver_adv_timer.o
 .rela.text.le.db.get
                0x000000001002008c        0x0 Output\obj\driver\driver_adv_timer.o
 .rela.text.le.db.set
                0x000000001002008c        0x0 Output\obj\driver\driver_adv_timer.o
 .rela.text.le.db.write
                0x000000001002008c        0x0 Output\obj\driver\driver_adv_timer.o
 .rela.text.le.db.read
                0x000000001002008c        0x0 Output\obj\driver\driver_adv_timer.o
 .rela.text.le.db.init
                0x000000001002008c        0x0 Output\obj\driver\driver_adv_timer.o
 .rela.text.le.db.remove
                0x000000001002008c        0x0 Output\obj\driver\driver_adv_timer.o
 .rela.text.le.db.remove_all
                0x000000001002008c        0x0 Output\obj\driver\driver_adv_timer.o
 .rela.text.le.db.add
                0x000000001002008c        0x0 Output\obj\driver\driver_adv_timer.o
 .rela.text.le.db
                0x000000001002008c        0x0 Output\obj\driver\driver_adv_timer.o
 .rela.text.le.db.dump
                0x000000001002008c        0x0 Output\obj\driver\driver_adv_timer.o
 .rela.text.stack.send.ntf_do
                0x000000001002008c        0x0 Output\obj\driver\driver_adv_timer.o
 .rela.text.stack.send.ntf
                0x000000001002008c        0x0 Output\obj\driver\driver_adv_timer.o
 .rela.text.ble.indicate
                0x000000001002008c        0x0 Output\obj\driver\driver_adv_timer.o
 .rela.text.stack.send.server
                0x000000001002008c        0x0 Output\obj\driver\driver_adv_timer.o
 .rela.com_text.server.send_req
                0x000000001002008c        0x0 Output\obj\driver\driver_adv_timer.o
 .rela.text.client.request_can_send
                0x000000001002008c        0x0 Output\obj\driver\driver_adv_timer.o
 .rela.text.client.write_req
                0x000000001002008c        0x0 Output\obj\driver\driver_adv_timer.o
 .rela.text.client.stop_listening
                0x000000001002008c        0x0 Output\obj\driver\driver_adv_timer.o
 .rela.text.sm.client
                0x000000001002008c        0x0 Output\obj\driver\driver_adv_timer.o
 .rela.text.client.deserialize_service
                0x000000001002008c        0x0 Output\obj\driver\driver_adv_timer.o
 .rela.text.client.deserialize_characteristic
                0x000000001002008c        0x0 Output\obj\driver\driver_adv_timer.o
 .rela.text.client.deserialize_characteristic_descriptor
                0x000000001002008c        0x0 Output\obj\driver\driver_adv_timer.o
 .rela.text.client.send
                0x000000001002008c        0x0 Output\obj\driver\driver_adv_timer.o
 .rela.text.client.find_services_uuid16
                0x000000001002008c        0x0 Output\obj\driver\driver_adv_timer.o
 .rela.text.client.find_character_uuid16
                0x000000001002008c        0x0 Output\obj\driver\driver_adv_timer.o
 .rela.text.client.read_value_uuid16
                0x000000001002008c        0x0 Output\obj\driver\driver_adv_timer.o
 .rela.text.sm.server
                0x000000001002008c        0x0 Output\obj\driver\driver_adv_timer.o
 .rela.text.server.register_service
                0x000000001002008c        0x0 Output\obj\driver\driver_adv_timer.o
 .rela.text.server.init
                0x000000001002008c        0x0 Output\obj\driver\driver_adv_timer.o
 .rela.com_text.server.req_can_send
                0x000000001002008c        0x0 Output\obj\driver\driver_adv_timer.o
 .rela.text.server.packet_handler
                0x000000001002008c        0x0 Output\obj\driver\driver_adv_timer.o
 .rela.text.att.event_handler
                0x000000001002008c        0x0 Output\obj\driver\driver_adv_timer.o
 .rela.text.server.indicate
                0x000000001002008c        0x0 Output\obj\driver\driver_adv_timer.o
 .rela.com_text.server.mtu_get
                0x000000001002008c        0x0 Output\obj\driver\driver_adv_timer.o
 .rela.text.att.register_client
                0x000000001002008c        0x0 Output\obj\driver\driver_adv_timer.o
 .rela.text.att.register_server
                0x000000001002008c        0x0 Output\obj\driver\driver_adv_timer.o
 .rela.text.att.dispatch
                0x000000001002008c        0x0 Output\obj\driver\driver_adv_timer.o
 .rela.text.att.dispatch_client
                0x000000001002008c        0x0 Output\obj\driver\driver_adv_timer.o
 .rela.com_text.att.dispatch_server
                0x000000001002008c        0x0 Output\obj\driver\driver_adv_timer.o
 .rela.text.att.dump
                0x000000001002008c        0x0 Output\obj\driver\driver_adv_timer.o
 .rela.text.att.mtu_request
                0x000000001002008c        0x0 Output\obj\driver\driver_adv_timer.o
 .rela.text.att_server.mtu_rsp
                0x000000001002008c        0x0 Output\obj\driver\driver_adv_timer.o
 .rela.text.gatt.get_client_config
                0x000000001002008c        0x0 Output\obj\driver\driver_adv_timer.o
 .rela.text.stack.sleep
                0x000000001002008c        0x0 Output\obj\driver\driver_adv_timer.o
 .rela.text.stack.api
                0x000000001002008c        0x0 Output\obj\driver\driver_adv_timer.o
 .rela.text.stack.setup
                0x000000001002008c        0x0 Output\obj\driver\driver_adv_timer.o
 .rela.text.ble.hci
                0x000000001002008c        0x0 Output\obj\driver\driver_adv_timer.o
 .rela.com_text.ret.bb.sleep
                0x000000001002008c        0x0 Output\obj\driver\driver_adv_timer.o
 .rela.rodata.stack.api
                0x000000001002008c        0x0 Output\obj\driver\driver_adv_timer.o
 .rela.com_text.bt.timer
                0x000000001002008c        0x0 Output\obj\driver\driver_adv_timer.o
 .rela.text.ble.api.max_mtu
                0x000000001002008c        0x0 Output\obj\driver\driver_adv_timer.o
 .rela.text.ble.api.adv_is_en
                0x000000001002008c        0x0 Output\obj\driver\driver_adv_timer.o
 .rela.text.ble.api.adv_data.set
                0x000000001002008c        0x0 Output\obj\driver\driver_adv_timer.o
 .rela.text.ble.api.scan
                0x000000001002008c        0x0 Output\obj\driver\driver_adv_timer.o
 .rela.text.ble.api.adv_interval.set
                0x000000001002008c        0x0 Output\obj\driver\driver_adv_timer.o
 .rela.text.ble.api.adv.adv_interval.get
                0x000000001002008c        0x0 Output\obj\driver\driver_adv_timer.o
 .rela.text.ble.api.conn_param.get
                0x000000001002008c        0x0 Output\obj\driver\driver_adv_timer.o
 .rela.text.ble.api.latency.dis
                0x000000001002008c        0x0 Output\obj\driver\driver_adv_timer.o
 .rela.text.ble.api.latency.en
                0x000000001002008c        0x0 Output\obj\driver\driver_adv_timer.o
 .rela.text.ble.api.adv_param.set
                0x000000001002008c        0x0 Output\obj\driver\driver_adv_timer.o
 .rela.text.ble.adv_param.get
                0x000000001002008c        0x0 Output\obj\driver\driver_adv_timer.o
 .rela.text.ble.api.scan.set
                0x000000001002008c        0x0 Output\obj\driver\driver_adv_timer.o
 .rela.text.ble.api.conn_do
                0x000000001002008c        0x0 Output\obj\driver\driver_adv_timer.o
 .rela.text.ble.api.regist
                0x000000001002008c        0x0 Output\obj\driver\driver_adv_timer.o
 .rela.com_sleep.bb
                0x000000001002008c        0x0 Output\obj\driver\driver_adv_timer.o
 .rela.text.rf.tx_tone
                0x000000001002008c        0x0 Output\obj\driver\driver_adv_timer.o
 .rela.com_text.ble.isr.con.end
                0x000000001002008c        0x0 Output\obj\driver\driver_adv_timer.o
 .rela.com_text.bb.isr.timer
                0x000000001002008c        0x0 Output\obj\driver\driver_adv_timer.o
 .rela.com_text.bb.isr
                0x000000001002008c        0x0 Output\obj\driver\driver_adv_timer.o
 .rela.com_text.bb.sleep
                0x000000001002008c        0x0 Output\obj\driver\driver_adv_timer.o
 .rela.text.bb.aes
                0x000000001002008c        0x0 Output\obj\driver\driver_adv_timer.o
 .rela.com_text.bb.run_loop
                0x000000001002008c        0x0 Output\obj\driver\driver_adv_timer.o
 .rela.rodata   0x000000001002008c        0x0 Output\obj\driver\driver_adv_timer.o
 .rela.text.stk.l2cap.txreq
                0x000000001002008c        0x0 Output\obj\driver\driver_adv_timer.o
 .rela.text.stack.l2cap
                0x000000001002008c        0x0 Output\obj\driver\driver_adv_timer.o
 .rela.text.stack.handler.l2cap
                0x000000001002008c        0x0 Output\obj\driver\driver_adv_timer.o
 .rela.text.stack.l2cap.gap
                0x000000001002008c        0x0 Output\obj\driver\driver_adv_timer.o
 .rela.com_text.stack.l2cap
                0x000000001002008c        0x0 Output\obj\driver\driver_adv_timer.o
 .rela.text.stack.send.l2cap
                0x000000001002008c        0x0 Output\obj\driver\driver_adv_timer.o
 .rela.text.stack.l2cap.connectionless
                0x000000001002008c        0x0 Output\obj\driver\driver_adv_timer.o
 .rela.text.stack.hci_init
                0x000000001002008c        0x0 Output\obj\driver\driver_adv_timer.o
 .rela.text.stack.hci
                0x000000001002008c        0x0 Output\obj\driver\driver_adv_timer.o
 .rela.text.stack.hci.conn
                0x000000001002008c        0x0 Output\obj\driver\driver_adv_timer.o
 .rela.com_text.stack.linked_list
                0x000000001002008c        0x0 Output\obj\driver\driver_adv_timer.o
 .rela.com_text.stack.hci
                0x000000001002008c        0x0 Output\obj\driver\driver_adv_timer.o
 .rela.text.stack.send.hci
                0x000000001002008c        0x0 Output\obj\driver\driver_adv_timer.o
 .rela.text.stack.hci_send
                0x000000001002008c        0x0 Output\obj\driver\driver_adv_timer.o
 .rela.com_text.stack.hci_recv
                0x000000001002008c        0x0 Output\obj\driver\driver_adv_timer.o
 .rela.text.stack.run_loop
                0x000000001002008c        0x0 Output\obj\driver\driver_adv_timer.o
 .rela.com_text.stack.hcic
                0x000000001002008c        0x0 Output\obj\driver\driver_adv_timer.o
 .rela.text.stack.h3c
                0x000000001002008c        0x0 Output\obj\driver\driver_adv_timer.o
 .rela.com_text.stack.h3c
                0x000000001002008c        0x0 Output\obj\driver\driver_adv_timer.o
 .rela.com_text.stack.util
                0x000000001002008c        0x0 Output\obj\driver\driver_adv_timer.o
 .rela.text.stack.ble.setup
                0x000000001002008c        0x0 Output\obj\driver\driver_adv_timer.o
 .rela.com_text.stack.uart_isr
                0x000000001002008c        0x0 Output\obj\driver\driver_adv_timer.o
 .rela.text.stack.hal
                0x000000001002008c        0x0 Output\obj\driver\driver_adv_timer.o
 .rela.com_text.bb.prog
                0x000000001002008c        0x0 Output\obj\driver\driver_adv_timer.o
 .rela.com_sleep.rfphy
                0x000000001002008c        0x0 Output\obj\driver\driver_adv_timer.o
 .rela.com_text.ble.isr
                0x000000001002008c        0x0 Output\obj\driver\driver_adv_timer.o
 .rela.text.le.mgr
                0x000000001002008c        0x0 Output\obj\driver\driver_adv_timer.o
 .rela.rodata.le.mgr_cntl.tbl
                0x000000001002008c        0x0 Output\obj\driver\driver_adv_timer.o
 .rela.text.le.ll_scan
                0x000000001002008c        0x0 Output\obj\driver\driver_adv_timer.o
 .rela.text.le.ll_adv.con
                0x000000001002008c        0x0 Output\obj\driver\driver_adv_timer.o
 .rela.text.le.ll_adv
                0x000000001002008c        0x0 Output\obj\driver\driver_adv_timer.o
 .rela.text.le.ll_cntl.pdu
                0x000000001002008c        0x0 Output\obj\driver\driver_adv_timer.o
 .rela.com_text.ble.isr.con
                0x000000001002008c        0x0 Output\obj\driver\driver_adv_timer.o
 .rela.text.le.ll_cntl.send
                0x000000001002008c        0x0 Output\obj\driver\driver_adv_timer.o
 .rela.rodata.le.ll_cntl.tbl
                0x000000001002008c        0x0 Output\obj\driver\driver_adv_timer.o
 .rela.text.le.ll_cntl
                0x000000001002008c        0x0 Output\obj\driver\driver_adv_timer.o
 .rela.text.le.ll_cntl.start
                0x000000001002008c        0x0 Output\obj\driver\driver_adv_timer.o
 .rela.text.le.ll_cntl.state
                0x000000001002008c        0x0 Output\obj\driver\driver_adv_timer.o
 .rela.text.le.ll_cntl.stop
                0x000000001002008c        0x0 Output\obj\driver\driver_adv_timer.o
 .rela.text.ble.var.init
                0x000000001002008c        0x0 Output\obj\driver\driver_adv_timer.o
 .rela.text.bb.vs.fcc_ble.do
                0x000000001002008c        0x0 Output\obj\driver\driver_adv_timer.o
 .rela.text.bb.vs.fcc
                0x000000001002008c        0x0 Output\obj\driver\driver_adv_timer.o
 .rela.com_rodata.bb.tbl
                0x000000001002008c        0x0 Output\obj\driver\driver_adv_timer.o
 .rela.text.le.ll_proc.disc
                0x000000001002008c        0x0 Output\obj\driver\driver_adv_timer.o
 .rela.text.bb.ble.test.start
                0x000000001002008c        0x0 Output\obj\driver\driver_adv_timer.o
                0x000000001002008c        0x4 LONG 0x0
                0x0000000010020200                . = ALIGN (0x200)
 *fill*         0x0000000010020090      0x170 

.stack          0x0000000000010800      0x400
                0x0000000000010800                __irq_stack_start = .
                0x0000000000000400                . = 0x400
 *fill*         0x0000000000010800      0x400 
                0x0000000000010c00                __irq_stack = .
                0x0000000000000400                __irq_stack_size = (__irq_stack - __irq_stack_start)

.bss            0x0000000000014200     0x1ae8
                0x0000000000014200                __heap_start = .
 *(.mem_heap)
 .mem_heap      0x0000000000014200     0x11b4 Output\obj\project\ble_all_roles\strong_symbol.o
                0x0000000000014200                mem_heap
                0x00000000000153b4                __heap_end = .
                0x00000000000153b4                __bss_start = .
 *(COMMON)
 COMMON         0x00000000000153b4       0x20 Output\obj\project\ble_all_roles\app\func_lowpwr.o
                0x00000000000153b4                sfr_user_backup
 COMMON         0x00000000000153d4        0x3 Output\obj\project\ble_all_roles\ble\ble_app.o
                0x00000000000153d4                app_env
 *fill*         0x00000000000153d7        0x1 
 COMMON         0x00000000000153d8       0x64 Output\obj\project\ble_all_roles\ble\ble_user_service.o
                0x00000000000153d8                ble_user_cb
 COMMON         0x000000000001543c       0x38 Output\obj\project\ble_all_roles\bsp\bsp_sys.o
                0x000000000001543c                tmr5ms_cnt
                0x0000000000015440                xcfg_cb
 COMMON         0x0000000000015474        0x1 Output\obj\project\ble_all_roles\strong_symbol.o
                0x0000000000015474                cfg_bt_rf_def_txpwr
 *(.bss*)
 *fill*         0x0000000000015475        0x3 
 .bss.charge_ctrl
                0x0000000000015478       0x10 Output\obj\driver\driver_charge.o
 .bss.sfr_backup
                0x0000000000015488       0x60 Output\obj\driver\driver_lowpwr.o
 .bss.client_handler
                0x00000000000154e8       0x10 Output\obj\project\ble_all_roles\ble\ble_client.o
 .bss.tc_state  0x00000000000154f8        0xc Output\obj\project\ble_all_roles\ble\ble_client.o
 .bss.ble_param
                0x0000000000015504       0x1a Output\obj\project\ble_all_roles\ble\ble_proc.o
 *fill*         0x000000000001551e        0x2 
 .bss.ff20_service
                0x0000000000015520       0x14 Output\obj\project\ble_all_roles\ble\ble_user_service.o
 .bss.filter_buf.4772
                0x0000000000015534       0x14 Output\obj\project\ble_all_roles\bsp\bsp_saradc_vbat.o
 .bss.cpu_gprs  0x0000000000015548       0x80 ..\..\libs\cpu\libplatform.a(main.o)
                0x0000000000015548                cpu_gprs
 .bss.sys       0x00000000000155c8       0x18 ..\..\libs\cpu\libplatform.a(main.o)
                0x00000000000155c8                sys
 .bss.irq_tbl   0x00000000000155e0       0x84 ..\..\libs\cpu\libplatform.a(interrupt.o)
                0x00000000000155e0                tbl_irq_vector
                0x0000000000015660                irq_mask
 .bss.soft_timer
                0x0000000000015664       0x28 ..\..\libs\cpu\libplatform.a(startup.o)
 .bss.thread.btstack
                0x000000000001568c        0x8 ..\..\libs\cpu\libplatform.a(startup.o)
                0x000000000001568c                psem_btstack
                0x0000000000015690                pmq_btstack
 *fill*         0x0000000000015694        0x4 
 .bss.lock_cb   0x0000000000015698       0x10 ..\..\libs\cpu\libplatform.a(lock.o)
 .bss.fix_buf   0x00000000000156a8        0xc ..\..\libs\cpu\libplatform.a(sleep.o)
                0x00000000000156a8                fix_buf
 .bss.sys_trim  0x00000000000156b4       0x10 ..\..\libs\cpu\libplatform.a(voltage_trim.o)
                0x00000000000156b4                sys_trim
 .bss           0x00000000000156c4       0x30 ..\..\libs\ble\libbtstack_all_roles.a(sm.o)
 .bss           0x00000000000156f4      0x15c ..\..\libs\ble\libbtstack_all_roles.a(btstack_memory.o)
 .bss           0x0000000000015850      0x140 ..\..\libs\ble\libbtstack_all_roles.a(bb_sche.o)
 .bss           0x0000000000015990        0xc ..\..\libs\ble\libbtstack_all_roles.a(aes.o)
                0x0000000000015990                aes_env
 .bss           0x000000000001599c       0x1c ..\..\libs\ble\libbtstack_all_roles.a(hct_tl.o)
 .bss           0x00000000000159b8       0x28 ..\..\libs\ble\libbtstack_all_roles.a(ll_tbox_freq_cal.o)
 .bss           0x00000000000159e0      0x120 ..\..\libs\ble\libbtstack_all_roles.a(ble_buf.o)
 *(.sbss*)
 .sbss.charge_status
                0x0000000000015b00        0x7 Output\obj\driver\driver_charge.o
 *fill*         0x0000000000015b07        0x1 
 .sbss.wkupedg_bak
                0x0000000000015b08        0x4 Output\obj\driver\driver_lowpwr.o
 .sbss.cfg_bt_work_mode
                0x0000000000015b0c        0x4 Output\obj\project\ble_all_roles\ble\ble_init.o
                0x0000000000015b0c                cfg_bt_work_mode
 .sbss.ff22_client_config
                0x0000000000015b10        0x2 Output\obj\project\ble_all_roles\ble\ble_user_service.o
 *fill*         0x0000000000015b12        0x2 
 .sbss.delay_cnt1.4697
                0x0000000000015b14        0x4 Output\obj\project\ble_all_roles\bsp\bsp_charge.o
 .sbss.delay_cnt2.4698
                0x0000000000015b18        0x4 Output\obj\project\ble_all_roles\bsp\bsp_charge.o
 .sbss.key_status
                0x0000000000015b1c        0x6 Output\obj\project\ble_all_roles\bsp\bsp_key.o
 *fill*         0x0000000000015b22        0x2 
 .sbss.delay_cnt.4744
                0x0000000000015b24        0x4 Output\obj\project\ble_all_roles\bsp\bsp_led.o
 .sbss.tick.4611
                0x0000000000015b28        0x4 Output\obj\project\ble_all_roles\bsp\bsp_saradc.o
 .sbss.auto_off_count.4782
                0x0000000000015b2c        0x1 Output\obj\project\ble_all_roles\bsp\bsp_saradc_vbat.o
 .sbss.index.4771
                0x0000000000015b2d        0x1 Output\obj\project\ble_all_roles\bsp\bsp_saradc_vbat.o
 *fill*         0x0000000000015b2e        0x2 
 .sbss.vbat_voltage
                0x0000000000015b30        0x4 Output\obj\project\ble_all_roles\bsp\bsp_saradc_vbat.o
 .sbss.cfg_bt_hsec_wakeup_en
                0x0000000000015b34        0x1 Output\obj\project\ble_all_roles\strong_symbol.o
                0x0000000000015b34                cfg_bt_hsec_wakeup_en
 *fill*         0x0000000000015b35        0x3 
 .sbss.spi_baud_r
                0x0000000000015b38        0x4 ..\..\libs\cpu\libplatform.a(os_flash.o)
                0x0000000000015b38                spi_baud_r
 .sbss.spi_baud_w
                0x0000000000015b3c        0x4 ..\..\libs\cpu\libplatform.a(os_flash.o)
                0x0000000000015b3c                spi_baud_w
 .sbss.ms_tick  0x0000000000015b40        0x4 ..\..\libs\cpu\libplatform.a(interrupt.o)
                0x0000000000015b40                ms_tick
 .sbss.os_tick_cnt
                0x0000000000015b44        0x4 ..\..\libs\cpu\libplatform.a(interrupt.o)
                0x0000000000015b44                os_tick_cnt
 .sbss.p_thread_cfg_cb
                0x0000000000015b48        0x4 ..\..\libs\cpu\libplatform.a(startup.o)
                0x0000000000015b48                p_thread_cfg_cb
 .sbss.pmutex_clk
                0x0000000000015b4c        0x4 ..\..\libs\cpu\libplatform.a(startup.o)
                0x0000000000015b4c                pmutex_clk
 .sbss.pmutex_cm
                0x0000000000015b50        0x4 ..\..\libs\cpu\libplatform.a(startup.o)
                0x0000000000015b50                pmutex_cm
 .sbss.soft_timer_isr_en
                0x0000000000015b54        0x4 ..\..\libs\cpu\libplatform.a(startup.o)
                0x0000000000015b54                soft_timer_isr_en
 .sbss.flash_manufacturer_id
                0x0000000000015b58        0x1 ..\..\libs\cpu\libplatform.a(spiflash.o)
                0x0000000000015b58                flash_manufacturer_id
 .sbss.fot_update_success
                0x0000000000015b59        0x1 ..\..\libs\cpu\libplatform.a(fot_pack.o)
 *fill*         0x0000000000015b5a        0x2 
 .sbss.tbl_double_key
                0x0000000000015b5c        0x4 ..\..\libs\cpu\libplatform.a(key.o)
 .sbss.tbl_double_key_cnt
                0x0000000000015b60        0x1 ..\..\libs\cpu\libplatform.a(key.o)
 *fill*         0x0000000000015b61        0x3 
 .sbss.lowpwr_sfr_save
                0x0000000000015b64        0x8 ..\..\libs\cpu\libplatform.a(sleep.o)
 .sbss.bt_thread_res
                0x0000000000015b6c        0x4 ..\..\libs\cpu\libplatform.a(bt.o)
                0x0000000000015b6c                bt_thread_res
 .sbss          0x0000000000015b70       0x10 ..\..\libs\ble\libbtstack_all_roles.a(sm.o)
 .sbss          0x0000000000015b80        0x4 ..\..\libs\ble\libbtstack_all_roles.a(gatt_client.o)
 .sbss          0x0000000000015b84        0xc ..\..\libs\ble\libbtstack_all_roles.a(att_server.o)
 .sbss          0x0000000000015b90        0xc ..\..\libs\ble\libbtstack_all_roles.a(att_dispatch.o)
 .sbss          0x0000000000015b9c       0x10 ..\..\libs\ble\libbtstack_all_roles.a(att_db.o)
 .sbss          0x0000000000015bac       0x1c ..\..\libs\ble\libbtstack_all_roles.a(btstack_api.o)
                0x0000000000015bac                fcc_cfg_cb
                0x0000000000015bb4                random_static_addr
                0x0000000000015bbc                btstack_cb
                0x0000000000015bc0                conn_param
 .sbss          0x0000000000015bc8        0x2 ..\..\libs\ble\libbtstack_all_roles.a(bb.o)
 .sbss          0x0000000000015bca        0x2 ..\..\libs\ble\libbtstack_all_roles.a(l2cap.o)
 .sbss          0x0000000000015bcc        0x4 ..\..\libs\ble\libbtstack_all_roles.a(hci.o)
 .sbss          0x0000000000015bd0        0x4 ..\..\libs\ble\libbtstack_all_roles.a(btstack_memory.o)
 .sbss          0x0000000000015bd4        0x4 ..\..\libs\ble\libbtstack_all_roles.a(hci_transport_hcic.o)
 .sbss          0x0000000000015bd8       0x10 ..\..\libs\ble\libbtstack_all_roles.a(btstack_main.o)
 .sbss          0x0000000000015be8        0x8 ..\..\libs\ble\libbtstack_all_roles.a(bb_sche.o)
                0x0000000000015be8                ss_params
 .sbss          0x0000000000015bf0        0x8 ..\..\libs\ble\libbtstack_all_roles.a(rf_xbox.o)
                0x0000000000015bf0                q_sum
                0x0000000000015bf4                i_sum
 .sbss          0x0000000000015bf8        0x1 ..\..\libs\ble\libbtstack_all_roles.a(mgr_proc.o)
 *fill*         0x0000000000015bf9        0x3 
 .sbss          0x0000000000015bfc        0x5 ..\..\libs\ble\libbtstack_all_roles.a(ll_tbox_prod_test.o)
 *fill*         0x0000000000015c01        0x3 
 .sbss          0x0000000000015c04        0x5 ..\..\libs\ble\libbtstack_all_roles.a(ll_proc.o)
 *(.buf*)
 *fill*         0x0000000000015c09        0x3 
 .buf.func_cb   0x0000000000015c0c        0x2 Output\obj\project\ble_all_roles\app\func.o
                0x0000000000015c0c                func_cb
 *fill*         0x0000000000015c0e        0x2 
 .buf.bsp.sys_cb
                0x0000000000015c10       0x14 Output\obj\project\ble_all_roles\bsp\bsp_sys.o
                0x0000000000015c10                sys_cb
 .buf.key.cb    0x0000000000015c24       0x10 ..\..\libs\cpu\libplatform.a(key.o)
 *(.btmem.stack.l2cap)
 .btmem.stack.l2cap
                0x0000000000015c34       0xb4 ..\..\libs\ble\libbtstack_all_roles.a(l2cap.o)
                0x0000000000015ce8                __bss_end = .
                0x0000000000000934                __bss_size = (__bss_end - __bss_start)
                0x00000000000011b4                __heap_size = (__heap_end - __heap_start)

.bram           0x0000000000018000     0x57a0
                0x0000000000018000                __bram_start = .
 *(.btmem.bthw)
 .btmem.bthw    0x0000000000018000     0x2128 ..\..\libs\ble\libbtstack_all_roles.a(bb.o)
                0x0000000000018000                bthw_mem
 *(.btmem*)
 .btmem.spi     0x000000000001a128      0x28c ..\..\libs\cpu\libplatform.a(cm.o)
 .btmem.rf.dc   0x000000000001a3b4       0x48 ..\..\libs\ble\libbtstack_all_roles.a(rf.o)
                0x000000000001a3b4                rf_dc_trim
 .btmem.ble.con
                0x000000000001a3fc       0x14 ..\..\libs\ble\libbtstack_all_roles.a(ble_con.o)
                0x000000000001a3fc                ble_con_env
 .btmem.bb.env  0x000000000001a410       0x68 ..\..\libs\ble\libbtstack_all_roles.a(bb_int.o)
                0x000000000001a410                bb_env
 .btmem.alloc.bb.buf
                0x000000000001a478      0xf30 ..\..\libs\ble\libbtstack_all_roles.a(bb.o)
 .btmem.bb.buf  0x000000000001b3a8      0x6fc ..\..\libs\ble\libbtstack_all_roles.a(bb.o)
 .btmem.bb.rf   0x000000000001baa4        0x6 ..\..\libs\ble\libbtstack_all_roles.a(bb.o)
                0x000000000001baa4                rf_api
 *fill*         0x000000000001baaa        0x2 
 .btmem.cache.stack.hci
                0x000000000001baac      0x845 ..\..\libs\ble\libbtstack_all_roles.a(hci.o)
 *fill*         0x000000000001c2f1        0x3 
 .btmem.stack.hci_buf
                0x000000000001c2f4      0x884 ..\..\libs\ble\libbtstack_all_roles.a(hci.o)
 .btmem.stack.util
                0x000000000001cb78       0x12 ..\..\libs\ble\libbtstack_all_roles.a(btstack_util.o)
 *fill*         0x000000000001cb8a        0x2 
 .btmem.stack   0x000000000001cb8c       0x14 ..\..\libs\ble\libbtstack_all_roles.a(btstack_run_loop.o)
 .btmem.hci.transport
                0x000000000001cba0       0x24 ..\..\libs\ble\libbtstack_all_roles.a(hci_transport_hcic.o)
                0x000000000001cbc0                p_hci_transport
 .btmem.bb.buf  0x000000000001cbc4       0x2c ..\..\libs\ble\libbtstack_all_roles.a(nanos.o)
 .btmem.bb.rf   0x000000000001cbf0        0x7 ..\..\libs\ble\libbtstack_all_roles.a(rf_xbox.o)
 *fill*         0x000000000001cbf7        0x1 
 .btmem.bb.hci  0x000000000001cbf8        0x5 ..\..\libs\ble\libbtstack_all_roles.a(hct.o)
                0x000000000001cbf8                hci_env
 *fill*         0x000000000001cbfd        0x3 
 .btmem.ble.lm  0x000000000001cc00      0x23c ..\..\libs\ble\libbtstack_all_roles.a(mgr.o)
                0x000000000001cc00                mgr_env
 .btmem.ble.lc  0x000000000001ce3c       0x14 ..\..\libs\ble\libbtstack_all_roles.a(ll.o)
                0x000000000001ce3c                ll_env
 .btmem.ble.scan
                0x000000000001ce50        0x8 ..\..\libs\ble\libbtstack_all_roles.a(ble_scan.o)
 .btmem.ble.hal
                0x000000000001ce58      0x127 ..\..\libs\ble\libbtstack_all_roles.a(ble_hal.o)
                0x000000000001ce58                ble_env
                0x000000000001cf74                ble_exp_sync_pos_tab
 *fill*         0x000000000001cf7f        0x1 
 .btmem.ble.adv
                0x000000000001cf80       0x14 ..\..\libs\ble\libbtstack_all_roles.a(ble_adv.o)
 .btmem.ble.buf
                0x000000000001cf94       0x30 ..\..\libs\ble\libbtstack_all_roles.a(ble_buf.o)
 .btmem.bb.ble.tbl
                0x000000000001cfc4       0x10 ..\..\libs\ble\libbtstack_all_roles.a(ble.o)
 .btmem.bb.vs   0x000000000001cfd4        0xd ..\..\libs\ble\libbtstack_all_roles.a(vs_proc.o)
                0x000000000001cfd4                vs_env
 *fill*         0x000000000001cfe1        0x3 
 .btmem.ble.test
                0x000000000001cfe4        0x4 ..\..\libs\ble\libbtstack_all_roles.a(ble_test.o)
 .btmem.ble.init
                0x000000000001cfe8        0x4 ..\..\libs\ble\libbtstack_all_roles.a(ble_init.o)
 *(.ble_cache*)
 .ble_cache.att
                0x000000000001cfec      0x460 Output\obj\project\ble_all_roles\ble\ble_init.o
                0x000000000001cfec                ble_tx_pool
 .ble_cache.att
                0x000000000001d44c       0x10 ..\..\libs\ble\libbtstack_all_roles.a(txpkt.o)
                0x000000000001d44c                ble_tx
 .ble_cache.sm  0x000000000001d45c        0x8 ..\..\libs\ble\libbtstack_all_roles.a(sm.o)
 .ble_cache.sm.addr
                0x000000000001d464        0x6 ..\..\libs\ble\libbtstack_all_roles.a(sm.o)
 *fill*         0x000000000001d46a        0x2 
 .ble_cache.sm.aes
                0x000000000001d46c        0x8 ..\..\libs\ble\libbtstack_all_roles.a(sm.o)
 .ble_cache.sm.auth
                0x000000000001d474        0x1 ..\..\libs\ble\libbtstack_all_roles.a(sm.o)
 *fill*         0x000000000001d475        0x3 
 .ble_cache.sm.cmac
                0x000000000001d478       0x45 ..\..\libs\ble\libbtstack_all_roles.a(sm.o)
 *fill*         0x000000000001d4bd        0x3 
 .ble_cache.sm.dhk
                0x000000000001d4c0       0x10 ..\..\libs\ble\libbtstack_all_roles.a(sm.o)
 .ble_cache.sm.er
                0x000000000001d4d0       0x10 ..\..\libs\ble\libbtstack_all_roles.a(sm.o)
 .ble_cache.sm.io
                0x000000000001d4e0        0x1 ..\..\libs\ble\libbtstack_all_roles.a(sm.o)
 *fill*         0x000000000001d4e1        0x3 
 .ble_cache.sm.ir
                0x000000000001d4e4       0x10 ..\..\libs\ble\libbtstack_all_roles.a(sm.o)
 .ble_cache.sm.irk
                0x000000000001d4f4       0x10 ..\..\libs\ble\libbtstack_all_roles.a(sm.o)
 .ble_cache.sm.rand
                0x000000000001d504        0x4 ..\..\libs\ble\libbtstack_all_roles.a(sm.o)
 .ble_cache.sm.req
                0x000000000001d508        0x1 ..\..\libs\ble\libbtstack_all_roles.a(sm.o)
 *fill*         0x000000000001d509        0x3 
 .ble_cache.sm.resolution
                0x000000000001d50c       0x18 ..\..\libs\ble\libbtstack_all_roles.a(sm.o)
 .ble_cache.sm.setup
                0x000000000001d524      0x100 ..\..\libs\ble\libbtstack_all_roles.a(sm.o)
 .ble_cache.sm.sta
                0x000000000001d624        0x8 ..\..\libs\ble\libbtstack_all_roles.a(sm.o)
 .ble_cache.att
                0x000000000001d62c       0x50 ..\..\libs\ble\libbtstack_all_roles.a(ad_parser.o)
                0x000000000001d62c                ad_param
 *(.ble_buf*)
 .ble_buf.var   0x000000000001d67c        0xc Output\obj\project\ble_all_roles\ble\ble_init.o
                0x000000000001d67c                ble_cb
 .ble_buf.att   0x000000000001d688       0xe0 ..\..\libs\ble\libbtstack_all_roles.a(le_device_db_memory.o)
                0x000000000001d688                le_devices
 .ble_buf.att   0x000000000001d768       0x28 ..\..\libs\ble\libbtstack_all_roles.a(gatt_client.o)
 .ble_buf.att   0x000000000001d790       0x10 ..\..\libs\ble\libbtstack_all_roles.a(att_server.o)
 *(.codec*)
 *(.fot_data.*)
 *(.tbox.*)
 *(.dut.huart_buf)
 *(.hci.h3*)
 *(.prod_test*)
                0x000000000001d7a0                __bram_end = .
                0x00000000000057a0                __bram_size = (__bram_end - __bram_start)
                0x000000000001ca00                __bank_size = SIZEOF (.flash)
                0x0000000010000200                __comm_lma = LOADADDR (.comm)
                0x0000000000003600                __comm_size = SIZEOF (.comm)
LOAD ..\..\libs\cpu\libplatform.a
LOAD ..\..\libs\cpu\libm.a
LOAD ..\..\libs\cpu\libc.a
LOAD ..\..\libs\cpu\libgcc.a
LOAD ..\..\libs\ble\libbtstack_all_roles.a
OUTPUT(Output\bin\app.rv32 elf32-littleriscv)

.comment        0x0000000000000000       0x23
 .comment       0x0000000000000000       0x11 Output\obj\driver\driver_charge.o
                                         0x12 (size before relaxing)
 .comment       0x0000000000000011       0x12 Output\obj\driver\driver_clk.o
 .comment       0x0000000000000011       0x12 Output\obj\driver\driver_gpio.o
 .comment       0x0000000000000011       0x12 Output\obj\driver\driver_lowpwr.o
 .comment       0x0000000000000011       0x12 Output\obj\driver\driver_saradc.o
 .comment       0x0000000000000011       0x12 Output\obj\driver\driver_uart.o
 .comment       0x0000000000000011       0x12 Output\obj\project\ble_all_roles\app\func.o
 .comment       0x0000000000000011       0x12 Output\obj\project\ble_all_roles\app\func_bt.o
 .comment       0x0000000000000011       0x12 Output\obj\project\ble_all_roles\app\func_idle.o
 .comment       0x0000000000000011       0x12 Output\obj\project\ble_all_roles\app\func_lowpwr.o
 .comment       0x0000000000000011       0x12 Output\obj\project\ble_all_roles\app\msg_bt.o
 .comment       0x0000000000000011       0x12 Output\obj\project\ble_all_roles\app\msg_idle.o
 .comment       0x0000000000000011       0x12 Output\obj\project\ble_all_roles\ble\ble_app.o
 .comment       0x0000000000000011       0x12 Output\obj\project\ble_all_roles\ble\ble_client.o
 .comment       0x0000000000000011       0x12 Output\obj\project\ble_all_roles\ble\ble_init.o
 .comment       0x0000000000000011       0x12 Output\obj\project\ble_all_roles\ble\ble_proc.o
 .comment       0x0000000000000011       0x12 Output\obj\project\ble_all_roles\ble\ble_service.o
 .comment       0x0000000000000011       0x12 Output\obj\project\ble_all_roles\ble\ble_user_service.o
 .comment       0x0000000000000011       0x12 Output\obj\project\ble_all_roles\bsp\bsp_charge.o
 .comment       0x0000000000000011       0x12 Output\obj\project\ble_all_roles\bsp\bsp_io_key.o
 .comment       0x0000000000000011       0x12 Output\obj\project\ble_all_roles\bsp\bsp_key.o
 .comment       0x0000000000000011       0x12 Output\obj\project\ble_all_roles\bsp\bsp_led.o
 .comment       0x0000000000000011       0x12 Output\obj\project\ble_all_roles\bsp\bsp_param.o
 .comment       0x0000000000000011       0x12 Output\obj\project\ble_all_roles\bsp\bsp_saradc.o
 .comment       0x0000000000000011       0x12 Output\obj\project\ble_all_roles\bsp\bsp_saradc_vbat.o
 .comment       0x0000000000000011       0x12 Output\obj\project\ble_all_roles\bsp\bsp_sys.o
 .comment       0x0000000000000011       0x12 Output\obj\project\ble_all_roles\bsp\bsp_uart_debug.o
 .comment       0x0000000000000011       0x12 Output\obj\project\ble_all_roles\main.o
 .comment       0x0000000000000011       0x12 Output\obj\project\ble_all_roles\production_test\prod_test.o
 .comment       0x0000000000000011       0x12 Output\obj\project\ble_all_roles\strong_symbol.o
 .comment       0x0000000000000011       0x12 ..\..\libs\cpu\libplatform.a(cm.o)
                                         0x13 (size before relaxing)
 .comment       0x0000000000000023       0x13 ..\..\libs\cpu\libplatform.a(os_flash.o)
 .comment       0x0000000000000023       0x13 ..\..\libs\cpu\libplatform.a(xcfg.o)
 .comment       0x0000000000000023       0x13 ..\..\libs\cpu\libplatform.a(main.o)
 .comment       0x0000000000000023       0x13 ..\..\libs\cpu\libplatform.a(interrupt.o)
 .comment       0x0000000000000023       0x13 ..\..\libs\cpu\libplatform.a(startup.o)
 .comment       0x0000000000000023       0x13 ..\..\libs\cpu\libplatform.a(sys_hook.o)
 .comment       0x0000000000000023       0x13 ..\..\libs\cpu\libplatform.a(pll.o)
 .comment       0x0000000000000023       0x13 ..\..\libs\cpu\libplatform.a(pmu.o)
 .comment       0x0000000000000023       0x13 ..\..\libs\cpu\libplatform.a(rc.o)
 .comment       0x0000000000000023       0x13 ..\..\libs\cpu\libplatform.a(spiflash.o)
 .comment       0x0000000000000023       0x13 ..\..\libs\cpu\libplatform.a(debug.o)
 .comment       0x0000000000000023       0x13 ..\..\libs\cpu\libplatform.a(fot_pack.o)
 .comment       0x0000000000000023       0x13 ..\..\libs\cpu\libplatform.a(key.o)
 .comment       0x0000000000000023       0x13 ..\..\libs\cpu\libplatform.a(lock.o)
 .comment       0x0000000000000023       0x13 ..\..\libs\cpu\libplatform.a(patch.o)
 .comment       0x0000000000000023       0x13 ..\..\libs\cpu\libplatform.a(sleep.o)
 .comment       0x0000000000000023       0x13 ..\..\libs\cpu\libplatform.a(sys.o)
 .comment       0x0000000000000023       0x13 ..\..\libs\cpu\libplatform.a(sys_clk.o)
 .comment       0x0000000000000023       0x13 ..\..\libs\cpu\libplatform.a(voltage_trim.o)
 .comment       0x0000000000000023       0x13 ..\..\libs\cpu\libplatform.a(weak_symbol.o)
 .comment       0x0000000000000023       0x13 ..\..\libs\cpu\libplatform.a(bt.o)
 .comment       0x0000000000000023       0x13 ..\..\libs\ble\libbtstack_all_roles.a(txpkt.o)
 .comment       0x0000000000000023       0x13 ..\..\libs\ble\libbtstack_all_roles.a(sm.o)
 .comment       0x0000000000000023       0x13 ..\..\libs\ble\libbtstack_all_roles.a(le_device_db_memory.o)
 .comment       0x0000000000000023       0x13 ..\..\libs\ble\libbtstack_all_roles.a(gatt_server.o)
 .comment       0x0000000000000023       0x13 ..\..\libs\ble\libbtstack_all_roles.a(gatt_client.o)
 .comment       0x0000000000000023       0x13 ..\..\libs\ble\libbtstack_all_roles.a(att_server.o)
 .comment       0x0000000000000023       0x13 ..\..\libs\ble\libbtstack_all_roles.a(att_dispatch.o)
 .comment       0x0000000000000023       0x13 ..\..\libs\ble\libbtstack_all_roles.a(att_db.o)
 .comment       0x0000000000000023       0x13 ..\..\libs\ble\libbtstack_all_roles.a(btstack_api.o)
 .comment       0x0000000000000023       0x13 ..\..\libs\ble\libbtstack_all_roles.a(bt_api.o)
 .comment       0x0000000000000023       0x13 ..\..\libs\ble\libbtstack_all_roles.a(ble_api.o)
 .comment       0x0000000000000023       0x13 ..\..\libs\ble\libbtstack_all_roles.a(rf.o)
 .comment       0x0000000000000023       0x13 ..\..\libs\ble\libbtstack_all_roles.a(ble_con.o)
 .comment       0x0000000000000023       0x13 ..\..\libs\ble\libbtstack_all_roles.a(bb_utils.o)
 .comment       0x0000000000000023       0x13 ..\..\libs\ble\libbtstack_all_roles.a(bb_int.o)
 .comment       0x0000000000000023       0x13 ..\..\libs\ble\libbtstack_all_roles.a(bb.o)
 .comment       0x0000000000000023       0x13 ..\..\libs\ble\libbtstack_all_roles.a(platform.o)
 .comment       0x0000000000000023       0x13 ..\..\libs\ble\libbtstack_all_roles.a(extern_ble.o)
 .comment       0x0000000000000023       0x13 ..\..\libs\ble\libbtstack_all_roles.a(extern.o)
 .comment       0x0000000000000023       0x13 ..\..\libs\ble\libbtstack_all_roles.a(l2cap.o)
 .comment       0x0000000000000023       0x13 ..\..\libs\ble\libbtstack_all_roles.a(hci_dump.o)
 .comment       0x0000000000000023       0x13 ..\..\libs\ble\libbtstack_all_roles.a(hci_cmd.o)
 .comment       0x0000000000000023       0x13 ..\..\libs\ble\libbtstack_all_roles.a(hci.o)
 .comment       0x0000000000000023       0x13 ..\..\libs\ble\libbtstack_all_roles.a(btstack_util.o)
 .comment       0x0000000000000023       0x13 ..\..\libs\ble\libbtstack_all_roles.a(btstack_run_loop.o)
 .comment       0x0000000000000023       0x13 ..\..\libs\ble\libbtstack_all_roles.a(btstack_memory.o)
 .comment       0x0000000000000023       0x13 ..\..\libs\ble\libbtstack_all_roles.a(btstack_linked_list.o)
 .comment       0x0000000000000023       0x13 ..\..\libs\ble\libbtstack_all_roles.a(ad_parser.o)
 .comment       0x0000000000000023       0x13 ..\..\libs\ble\libbtstack_all_roles.a(hci_transport_hcic.o)
 .comment       0x0000000000000023       0x13 ..\..\libs\ble\libbtstack_all_roles.a(hci_transport_h3_controller.o)
 .comment       0x0000000000000023       0x13 ..\..\libs\ble\libbtstack_all_roles.a(hci_transport_dummy.o)
 .comment       0x0000000000000023       0x13 ..\..\libs\ble\libbtstack_all_roles.a(btstack_main.o)
 .comment       0x0000000000000023       0x13 ..\..\libs\ble\libbtstack_all_roles.a(btstack_hal.o)
 .comment       0x0000000000000023       0x13 ..\..\libs\ble\libbtstack_all_roles.a(nanos.o)
 .comment       0x0000000000000023       0x13 ..\..\libs\ble\libbtstack_all_roles.a(bb_sche.o)
 .comment       0x0000000000000023       0x13 ..\..\libs\ble\libbtstack_all_roles.a(patch.o)
 .comment       0x0000000000000023       0x13 ..\..\libs\ble\libbtstack_all_roles.a(bb_dbg.o)
 .comment       0x0000000000000023       0x13 ..\..\libs\ble\libbtstack_all_roles.a(bb_clk.o)
 .comment       0x0000000000000023       0x13 ..\..\libs\ble\libbtstack_all_roles.a(aes.o)
 .comment       0x0000000000000023       0x13 ..\..\libs\ble\libbtstack_all_roles.a(extern.o)
 .comment       0x0000000000000023       0x13 ..\..\libs\ble\libbtstack_all_roles.a(vs.o)
 .comment       0x0000000000000023       0x13 ..\..\libs\ble\libbtstack_all_roles.a(rf_xbox.o)
 .comment       0x0000000000000023       0x13 ..\..\libs\ble\libbtstack_all_roles.a(complex.o)
 .comment       0x0000000000000023       0x13 ..\..\libs\ble\libbtstack_all_roles.a(ble_hook.o)
 .comment       0x0000000000000023       0x13 ..\..\libs\ble\libbtstack_all_roles.a(hct_tl.o)
 .comment       0x0000000000000023       0x13 ..\..\libs\ble\libbtstack_all_roles.a(hct_msg.o)
 .comment       0x0000000000000023       0x13 ..\..\libs\ble\libbtstack_all_roles.a(hct.o)
 .comment       0x0000000000000023       0x13 ..\..\libs\ble\libbtstack_all_roles.a(mgr_hci.o)
 .comment       0x0000000000000023       0x13 ..\..\libs\ble\libbtstack_all_roles.a(mgr.o)
 .comment       0x0000000000000023       0x13 ..\..\libs\ble\libbtstack_all_roles.a(ll_scan.o)
 .comment       0x0000000000000023       0x13 ..\..\libs\ble\libbtstack_all_roles.a(ll_adv.o)
 .comment       0x0000000000000023       0x13 ..\..\libs\ble\libbtstack_all_roles.a(ll_tbox_freq_cal.o)
 .comment       0x0000000000000023       0x13 ..\..\libs\ble\libbtstack_all_roles.a(ll_con_upd.o)
 .comment       0x0000000000000023       0x13 ..\..\libs\ble\libbtstack_all_roles.a(ll_cntl.o)
 .comment       0x0000000000000023       0x13 ..\..\libs\ble\libbtstack_all_roles.a(ll_clk_acc.o)
 .comment       0x0000000000000023       0x13 ..\..\libs\ble\libbtstack_all_roles.a(ll_chmap_upd.o)
 .comment       0x0000000000000023       0x13 ..\..\libs\ble\libbtstack_all_roles.a(ll.o)
 .comment       0x0000000000000023       0x13 ..\..\libs\ble\libbtstack_all_roles.a(ble_scan.o)
 .comment       0x0000000000000023       0x13 ..\..\libs\ble\libbtstack_all_roles.a(ble_hal.o)
 .comment       0x0000000000000023       0x13 ..\..\libs\ble\libbtstack_all_roles.a(ble_adv.o)
 .comment       0x0000000000000023       0x13 ..\..\libs\ble\libbtstack_all_roles.a(ble_buf.o)
 .comment       0x0000000000000023       0x13 ..\..\libs\ble\libbtstack_all_roles.a(ble.o)
 .comment       0x0000000000000023       0x13 ..\..\libs\ble\libbtstack_all_roles.a(bb_sleep.o)
 .comment       0x0000000000000023       0x13 ..\..\libs\ble\libbtstack_all_roles.a(l2cap_signaling.o)
 .comment       0x0000000000000023       0x13 ..\..\libs\ble\libbtstack_all_roles.a(btstack_memory_pool.o)
 .comment       0x0000000000000023       0x13 ..\..\libs\ble\libbtstack_all_roles.a(platform.o)
 .comment       0x0000000000000023       0x13 ..\..\libs\ble\libbtstack_all_roles.a(vs_proc.o)
 .comment       0x0000000000000023       0x13 ..\..\libs\ble\libbtstack_all_roles.a(vs_fcc.o)
 .comment       0x0000000000000023       0x13 ..\..\libs\ble\libbtstack_all_roles.a(scan_hook.o)
 .comment       0x0000000000000023       0x13 ..\..\libs\ble\libbtstack_all_roles.a(adv_hook.o)
 .comment       0x0000000000000023       0x13 ..\..\libs\ble\libbtstack_all_roles.a(mgr_test.o)
 .comment       0x0000000000000023       0x13 ..\..\libs\ble\libbtstack_all_roles.a(mgr_proc.o)
 .comment       0x0000000000000023       0x13 ..\..\libs\ble\libbtstack_all_roles.a(mgr_init.o)
 .comment       0x0000000000000023       0x13 ..\..\libs\ble\libbtstack_all_roles.a(ll_version.o)
 .comment       0x0000000000000023       0x13 ..\..\libs\ble\libbtstack_all_roles.a(ll_tbox_prod_test.o)
 .comment       0x0000000000000023       0x13 ..\..\libs\ble\libbtstack_all_roles.a(ll_tbox_feature.o)
 .comment       0x0000000000000023       0x13 ..\..\libs\ble\libbtstack_all_roles.a(ll_proc.o)
 .comment       0x0000000000000023       0x13 ..\..\libs\ble\libbtstack_all_roles.a(ll_ping.o)
 .comment       0x0000000000000023       0x13 ..\..\libs\ble\libbtstack_all_roles.a(ll_phy_upd.o)
 .comment       0x0000000000000023       0x13 ..\..\libs\ble\libbtstack_all_roles.a(ll_length.o)
 .comment       0x0000000000000023       0x13 ..\..\libs\ble\libbtstack_all_roles.a(ll_feature.o)
 .comment       0x0000000000000023       0x13 ..\..\libs\ble\libbtstack_all_roles.a(ll_encrypt.o)
 .comment       0x0000000000000023       0x13 ..\..\libs\ble\libbtstack_all_roles.a(ll_disconnect.o)
 .comment       0x0000000000000023       0x13 ..\..\libs\ble\libbtstack_all_roles.a(ble_test.o)
 .comment       0x0000000000000023       0x13 ..\..\libs\ble\libbtstack_all_roles.a(ble_sync.o)
 .comment       0x0000000000000023       0x13 ..\..\libs\ble\libbtstack_all_roles.a(ble_init.o)

.riscv.attributes
                0x0000000000000000     0x15ac
 .riscv.attributes
                0x0000000000000000       0x32 ..\..\libs\cpu\libplatform.a(cm.o)
 .riscv.attributes
                0x0000000000000032       0x32 ..\..\libs\cpu\libplatform.a(os_flash.o)
 .riscv.attributes
                0x0000000000000064       0x32 ..\..\libs\cpu\libplatform.a(xcfg.o)
 .riscv.attributes
                0x0000000000000096       0x32 ..\..\libs\cpu\libplatform.a(main.o)
 .riscv.attributes
                0x00000000000000c8       0x32 ..\..\libs\cpu\libplatform.a(interrupt.o)
 .riscv.attributes
                0x00000000000000fa       0x32 ..\..\libs\cpu\libplatform.a(startup.o)
 .riscv.attributes
                0x000000000000012c       0x32 ..\..\libs\cpu\libplatform.a(sys_hook.o)
 .riscv.attributes
                0x000000000000015e       0x32 ..\..\libs\cpu\libplatform.a(pll.o)
 .riscv.attributes
                0x0000000000000190       0x32 ..\..\libs\cpu\libplatform.a(pmu.o)
 .riscv.attributes
                0x00000000000001c2       0x32 ..\..\libs\cpu\libplatform.a(rc.o)
 .riscv.attributes
                0x00000000000001f4       0x34 ..\..\libs\cpu\libplatform.a(reset.o)
 .riscv.attributes
                0x0000000000000228       0x32 ..\..\libs\cpu\libplatform.a(spiflash.o)
 .riscv.attributes
                0x000000000000025a       0x32 ..\..\libs\cpu\libplatform.a(debug.o)
 .riscv.attributes
                0x000000000000028c       0x32 ..\..\libs\cpu\libplatform.a(fot_pack.o)
 .riscv.attributes
                0x00000000000002be       0x32 ..\..\libs\cpu\libplatform.a(key.o)
 .riscv.attributes
                0x00000000000002f0       0x32 ..\..\libs\cpu\libplatform.a(lock.o)
 .riscv.attributes
                0x0000000000000322       0x32 ..\..\libs\cpu\libplatform.a(patch.o)
 .riscv.attributes
                0x0000000000000354       0x30 ..\..\libs\cpu\libplatform.a(s_sys.o)
 .riscv.attributes
                0x0000000000000384       0x32 ..\..\libs\cpu\libplatform.a(sleep.o)
 .riscv.attributes
                0x00000000000003b6       0x32 ..\..\libs\cpu\libplatform.a(sys.o)
 .riscv.attributes
                0x00000000000003e8       0x32 ..\..\libs\cpu\libplatform.a(sys_clk.o)
 .riscv.attributes
                0x000000000000041a       0x32 ..\..\libs\cpu\libplatform.a(voltage_trim.o)
 .riscv.attributes
                0x000000000000044c       0x32 ..\..\libs\cpu\libplatform.a(weak_symbol.o)
 .riscv.attributes
                0x000000000000047e       0x32 ..\..\libs\cpu\libplatform.a(bt.o)
 .riscv.attributes
                0x00000000000004b0       0x32 ..\..\libs\ble\libbtstack_all_roles.a(txpkt.o)
 .riscv.attributes
                0x00000000000004e2       0x32 ..\..\libs\ble\libbtstack_all_roles.a(sm.o)
 .riscv.attributes
                0x0000000000000514       0x32 ..\..\libs\ble\libbtstack_all_roles.a(le_device_db_memory.o)
 .riscv.attributes
                0x0000000000000546       0x32 ..\..\libs\ble\libbtstack_all_roles.a(gatt_server.o)
 .riscv.attributes
                0x0000000000000578       0x32 ..\..\libs\ble\libbtstack_all_roles.a(gatt_client.o)
 .riscv.attributes
                0x00000000000005aa       0x32 ..\..\libs\ble\libbtstack_all_roles.a(att_server.o)
 .riscv.attributes
                0x00000000000005dc       0x32 ..\..\libs\ble\libbtstack_all_roles.a(att_dispatch.o)
 .riscv.attributes
                0x000000000000060e       0x32 ..\..\libs\ble\libbtstack_all_roles.a(att_db.o)
 .riscv.attributes
                0x0000000000000640       0x32 ..\..\libs\ble\libbtstack_all_roles.a(btstack_api.o)
 .riscv.attributes
                0x0000000000000672       0x32 ..\..\libs\ble\libbtstack_all_roles.a(bt_api.o)
 .riscv.attributes
                0x00000000000006a4       0x32 ..\..\libs\ble\libbtstack_all_roles.a(ble_api.o)
 .riscv.attributes
                0x00000000000006d6       0x32 ..\..\libs\ble\libbtstack_all_roles.a(rf.o)
 .riscv.attributes
                0x0000000000000708       0x32 ..\..\libs\ble\libbtstack_all_roles.a(ble_con.o)
 .riscv.attributes
                0x000000000000073a       0x32 ..\..\libs\ble\libbtstack_all_roles.a(bb_utils.o)
 .riscv.attributes
                0x000000000000076c       0x32 ..\..\libs\ble\libbtstack_all_roles.a(bb_int.o)
 .riscv.attributes
                0x000000000000079e       0x32 ..\..\libs\ble\libbtstack_all_roles.a(bb.o)
 .riscv.attributes
                0x00000000000007d0       0x32 ..\..\libs\ble\libbtstack_all_roles.a(platform.o)
 .riscv.attributes
                0x0000000000000802       0x32 ..\..\libs\ble\libbtstack_all_roles.a(extern_ble.o)
 .riscv.attributes
                0x0000000000000834       0x32 ..\..\libs\ble\libbtstack_all_roles.a(extern.o)
 .riscv.attributes
                0x0000000000000866       0x32 ..\..\libs\ble\libbtstack_all_roles.a(l2cap.o)
 .riscv.attributes
                0x0000000000000898       0x32 ..\..\libs\ble\libbtstack_all_roles.a(hci_dump.o)
 .riscv.attributes
                0x00000000000008ca       0x32 ..\..\libs\ble\libbtstack_all_roles.a(hci_cmd.o)
 .riscv.attributes
                0x00000000000008fc       0x32 ..\..\libs\ble\libbtstack_all_roles.a(hci.o)
 .riscv.attributes
                0x000000000000092e       0x32 ..\..\libs\ble\libbtstack_all_roles.a(btstack_util.o)
 .riscv.attributes
                0x0000000000000960       0x32 ..\..\libs\ble\libbtstack_all_roles.a(btstack_run_loop.o)
 .riscv.attributes
                0x0000000000000992       0x32 ..\..\libs\ble\libbtstack_all_roles.a(btstack_memory.o)
 .riscv.attributes
                0x00000000000009c4       0x32 ..\..\libs\ble\libbtstack_all_roles.a(btstack_linked_list.o)
 .riscv.attributes
                0x00000000000009f6       0x32 ..\..\libs\ble\libbtstack_all_roles.a(ad_parser.o)
 .riscv.attributes
                0x0000000000000a28       0x32 ..\..\libs\ble\libbtstack_all_roles.a(hci_transport_hcic.o)
 .riscv.attributes
                0x0000000000000a5a       0x32 ..\..\libs\ble\libbtstack_all_roles.a(hci_transport_h3_controller.o)
 .riscv.attributes
                0x0000000000000a8c       0x32 ..\..\libs\ble\libbtstack_all_roles.a(hci_transport_dummy.o)
 .riscv.attributes
                0x0000000000000abe       0x32 ..\..\libs\ble\libbtstack_all_roles.a(btstack_main.o)
 .riscv.attributes
                0x0000000000000af0       0x32 ..\..\libs\ble\libbtstack_all_roles.a(btstack_hal.o)
 .riscv.attributes
                0x0000000000000b22       0x32 ..\..\libs\ble\libbtstack_all_roles.a(nanos.o)
 .riscv.attributes
                0x0000000000000b54       0x32 ..\..\libs\ble\libbtstack_all_roles.a(bb_sche.o)
 .riscv.attributes
                0x0000000000000b86       0x32 ..\..\libs\ble\libbtstack_all_roles.a(patch.o)
 .riscv.attributes
                0x0000000000000bb8       0x32 ..\..\libs\ble\libbtstack_all_roles.a(bb_dbg.o)
 .riscv.attributes
                0x0000000000000bea       0x32 ..\..\libs\ble\libbtstack_all_roles.a(bb_clk.o)
 .riscv.attributes
                0x0000000000000c1c       0x32 ..\..\libs\ble\libbtstack_all_roles.a(aes.o)
 .riscv.attributes
                0x0000000000000c4e       0x32 ..\..\libs\ble\libbtstack_all_roles.a(extern.o)
 .riscv.attributes
                0x0000000000000c80       0x32 ..\..\libs\ble\libbtstack_all_roles.a(vs.o)
 .riscv.attributes
                0x0000000000000cb2       0x32 ..\..\libs\ble\libbtstack_all_roles.a(rf_xbox.o)
 .riscv.attributes
                0x0000000000000ce4       0x32 ..\..\libs\ble\libbtstack_all_roles.a(complex.o)
 .riscv.attributes
                0x0000000000000d16       0x32 ..\..\libs\ble\libbtstack_all_roles.a(ble_hook.o)
 .riscv.attributes
                0x0000000000000d48       0x32 ..\..\libs\ble\libbtstack_all_roles.a(hct_tl.o)
 .riscv.attributes
                0x0000000000000d7a       0x32 ..\..\libs\ble\libbtstack_all_roles.a(hct_msg.o)
 .riscv.attributes
                0x0000000000000dac       0x32 ..\..\libs\ble\libbtstack_all_roles.a(hct.o)
 .riscv.attributes
                0x0000000000000dde       0x32 ..\..\libs\ble\libbtstack_all_roles.a(mgr_hci.o)
 .riscv.attributes
                0x0000000000000e10       0x32 ..\..\libs\ble\libbtstack_all_roles.a(mgr.o)
 .riscv.attributes
                0x0000000000000e42       0x32 ..\..\libs\ble\libbtstack_all_roles.a(ll_scan.o)
 .riscv.attributes
                0x0000000000000e74       0x32 ..\..\libs\ble\libbtstack_all_roles.a(ll_adv.o)
 .riscv.attributes
                0x0000000000000ea6       0x32 ..\..\libs\ble\libbtstack_all_roles.a(ll_tbox_freq_cal.o)
 .riscv.attributes
                0x0000000000000ed8       0x32 ..\..\libs\ble\libbtstack_all_roles.a(ll_con_upd.o)
 .riscv.attributes
                0x0000000000000f0a       0x32 ..\..\libs\ble\libbtstack_all_roles.a(ll_cntl.o)
 .riscv.attributes
                0x0000000000000f3c       0x32 ..\..\libs\ble\libbtstack_all_roles.a(ll_clk_acc.o)
 .riscv.attributes
                0x0000000000000f6e       0x32 ..\..\libs\ble\libbtstack_all_roles.a(ll_chmap_upd.o)
 .riscv.attributes
                0x0000000000000fa0       0x32 ..\..\libs\ble\libbtstack_all_roles.a(ll.o)
 .riscv.attributes
                0x0000000000000fd2       0x32 ..\..\libs\ble\libbtstack_all_roles.a(ble_scan.o)
 .riscv.attributes
                0x0000000000001004       0x32 ..\..\libs\ble\libbtstack_all_roles.a(ble_hal.o)
 .riscv.attributes
                0x0000000000001036       0x32 ..\..\libs\ble\libbtstack_all_roles.a(ble_adv.o)
 .riscv.attributes
                0x0000000000001068       0x32 ..\..\libs\ble\libbtstack_all_roles.a(ble_buf.o)
 .riscv.attributes
                0x000000000000109a       0x32 ..\..\libs\ble\libbtstack_all_roles.a(ble.o)
 .riscv.attributes
                0x00000000000010cc       0x32 ..\..\libs\ble\libbtstack_all_roles.a(bb_sleep.o)
 .riscv.attributes
                0x00000000000010fe       0x32 ..\..\libs\ble\libbtstack_all_roles.a(l2cap_signaling.o)
 .riscv.attributes
                0x0000000000001130       0x32 ..\..\libs\ble\libbtstack_all_roles.a(btstack_memory_pool.o)
 .riscv.attributes
                0x0000000000001162       0x30 ..\..\libs\ble\libbtstack_all_roles.a(patch_asm.o)
 .riscv.attributes
                0x0000000000001192       0x32 ..\..\libs\ble\libbtstack_all_roles.a(platform.o)
 .riscv.attributes
                0x00000000000011c4       0x32 ..\..\libs\ble\libbtstack_all_roles.a(vs_proc.o)
 .riscv.attributes
                0x00000000000011f6       0x32 ..\..\libs\ble\libbtstack_all_roles.a(vs_fcc.o)
 .riscv.attributes
                0x0000000000001228       0x32 ..\..\libs\ble\libbtstack_all_roles.a(scan_hook.o)
 .riscv.attributes
                0x000000000000125a       0x32 ..\..\libs\ble\libbtstack_all_roles.a(adv_hook.o)
 .riscv.attributes
                0x000000000000128c       0x32 ..\..\libs\ble\libbtstack_all_roles.a(mgr_test.o)
 .riscv.attributes
                0x00000000000012be       0x32 ..\..\libs\ble\libbtstack_all_roles.a(mgr_proc.o)
 .riscv.attributes
                0x00000000000012f0       0x32 ..\..\libs\ble\libbtstack_all_roles.a(mgr_init.o)
 .riscv.attributes
                0x0000000000001322       0x32 ..\..\libs\ble\libbtstack_all_roles.a(ll_version.o)
 .riscv.attributes
                0x0000000000001354       0x32 ..\..\libs\ble\libbtstack_all_roles.a(ll_tbox_prod_test.o)
 .riscv.attributes
                0x0000000000001386       0x32 ..\..\libs\ble\libbtstack_all_roles.a(ll_tbox_feature.o)
 .riscv.attributes
                0x00000000000013b8       0x32 ..\..\libs\ble\libbtstack_all_roles.a(ll_proc.o)
 .riscv.attributes
                0x00000000000013ea       0x32 ..\..\libs\ble\libbtstack_all_roles.a(ll_ping.o)
 .riscv.attributes
                0x000000000000141c       0x32 ..\..\libs\ble\libbtstack_all_roles.a(ll_phy_upd.o)
 .riscv.attributes
                0x000000000000144e       0x32 ..\..\libs\ble\libbtstack_all_roles.a(ll_length.o)
 .riscv.attributes
                0x0000000000001480       0x32 ..\..\libs\ble\libbtstack_all_roles.a(ll_feature.o)
 .riscv.attributes
                0x00000000000014b2       0x32 ..\..\libs\ble\libbtstack_all_roles.a(ll_encrypt.o)
 .riscv.attributes
                0x00000000000014e4       0x32 ..\..\libs\ble\libbtstack_all_roles.a(ll_disconnect.o)
 .riscv.attributes
                0x0000000000001516       0x32 ..\..\libs\ble\libbtstack_all_roles.a(ble_test.o)
 .riscv.attributes
                0x0000000000001548       0x32 ..\..\libs\ble\libbtstack_all_roles.a(ble_sync.o)
 .riscv.attributes
                0x000000000000157a       0x32 ..\..\libs\ble\libbtstack_all_roles.a(ble_init.o)
